
C0_test.elf:     file format elf32-littlearm

Sections:
Idx Name          Size      VMA       LMA       File off  Algn
  0 .isr_vector   000000c0  08000000  08000000  00010000  2**0
                  CONTENTS, ALLOC, LOAD, READONLY, DATA
  1 .text         00002ea4  080000c0  080000c0  000100c0  2**2
                  CONTENTS, ALLOC, LOAD, READONLY, CODE
  2 .rodata       0000008c  08002f64  08002f64  00012f64  2**2
                  CONTENTS, ALLOC, LOAD, READONLY, DATA
  3 .ARM.extab    00000000  08002ff0  08002ff0  0002000c  2**0
                  CONTENTS
  4 .ARM          00000000  08002ff0  08002ff0  0002000c  2**0
                  CONTENTS
  5 .preinit_array 00000000  08002ff0  08002ff0  0002000c  2**0
                  CONTENTS, ALLOC, LOAD, DATA
  6 .init_array   00000004  08002ff0  08002ff0  00012ff0  2**2
                  CONTENTS, ALLOC, LOAD, DATA
  7 .fini_array   00000004  08002ff4  08002ff4  00012ff4  2**2
                  CONTENTS, ALLOC, LOAD, DATA
  8 .data         0000000c  20000000  08002ff8  00020000  2**2
                  CONTENTS, ALLOC, LOAD, DATA
  9 .bss          000003a8  2000000c  08003004  0002000c  2**2
                  ALLOC
 10 ._user_heap_stack 00000604  200003b4  08003004  000203b4  2**0
                  ALLOC
 11 .ARM.attributes 00000028  00000000  00000000  0002000c  2**0
                  CONTENTS, READONLY
 12 .comment      00000050  00000000  00000000  00020034  2**0
                  CONTENTS, READONLY
 13 .debug_frame  0000008c  00000000  00000000  00020084  2**2
                  CONTENTS, READONLY, DEBUGGING, OCTETS

Disassembly of section .text:

080000c0 <__do_global_dtors_aux>:
 80000c0:	b510      	push	{r4, lr}
 80000c2:	4c06      	ldr	r4, [pc, #24]	; (80000dc <__do_global_dtors_aux+0x1c>)
 80000c4:	7823      	ldrb	r3, [r4, #0]
 80000c6:	2b00      	cmp	r3, #0
 80000c8:	d107      	bne.n	80000da <__do_global_dtors_aux+0x1a>
 80000ca:	4b05      	ldr	r3, [pc, #20]	; (80000e0 <__do_global_dtors_aux+0x20>)
 80000cc:	2b00      	cmp	r3, #0
 80000ce:	d002      	beq.n	80000d6 <__do_global_dtors_aux+0x16>
 80000d0:	4804      	ldr	r0, [pc, #16]	; (80000e4 <__do_global_dtors_aux+0x24>)
 80000d2:	e000      	b.n	80000d6 <__do_global_dtors_aux+0x16>
 80000d4:	bf00      	nop
 80000d6:	2301      	movs	r3, #1
 80000d8:	7023      	strb	r3, [r4, #0]
 80000da:	bd10      	pop	{r4, pc}
 80000dc:	2000000c 	.word	0x2000000c
 80000e0:	00000000 	.word	0x00000000
 80000e4:	08002f4c 	.word	0x08002f4c

080000e8 <frame_dummy>:
 80000e8:	4b04      	ldr	r3, [pc, #16]	; (80000fc <frame_dummy+0x14>)
 80000ea:	b510      	push	{r4, lr}
 80000ec:	2b00      	cmp	r3, #0
 80000ee:	d003      	beq.n	80000f8 <frame_dummy+0x10>
 80000f0:	4903      	ldr	r1, [pc, #12]	; (8000100 <frame_dummy+0x18>)
 80000f2:	4804      	ldr	r0, [pc, #16]	; (8000104 <frame_dummy+0x1c>)
 80000f4:	e000      	b.n	80000f8 <frame_dummy+0x10>
 80000f6:	bf00      	nop
 80000f8:	bd10      	pop	{r4, pc}
 80000fa:	46c0      	nop			; (mov r8, r8)
 80000fc:	00000000 	.word	0x00000000
 8000100:	20000010 	.word	0x20000010
 8000104:	08002f4c 	.word	0x08002f4c

08000108 <__gnu_thumb1_case_sqi>:
 8000108:	b402      	push	{r1}
 800010a:	4671      	mov	r1, lr
 800010c:	0849      	lsrs	r1, r1, #1
 800010e:	0049      	lsls	r1, r1, #1
 8000110:	5609      	ldrsb	r1, [r1, r0]
 8000112:	0049      	lsls	r1, r1, #1
 8000114:	448e      	add	lr, r1
 8000116:	bc02      	pop	{r1}
 8000118:	4770      	bx	lr
 800011a:	46c0      	nop			; (mov r8, r8)

0800011c <__gnu_thumb1_case_uqi>:
 800011c:	b402      	push	{r1}
 800011e:	4671      	mov	r1, lr
 8000120:	0849      	lsrs	r1, r1, #1
 8000122:	0049      	lsls	r1, r1, #1
 8000124:	5c09      	ldrb	r1, [r1, r0]
 8000126:	0049      	lsls	r1, r1, #1
 8000128:	448e      	add	lr, r1
 800012a:	bc02      	pop	{r1}
 800012c:	4770      	bx	lr
 800012e:	46c0      	nop			; (mov r8, r8)

08000130 <__udivsi3>:
 8000130:	2200      	movs	r2, #0
 8000132:	0843      	lsrs	r3, r0, #1
 8000134:	428b      	cmp	r3, r1
 8000136:	d374      	bcc.n	8000222 <__udivsi3+0xf2>
 8000138:	0903      	lsrs	r3, r0, #4
 800013a:	428b      	cmp	r3, r1
 800013c:	d35f      	bcc.n	80001fe <__udivsi3+0xce>
 800013e:	0a03      	lsrs	r3, r0, #8
 8000140:	428b      	cmp	r3, r1
 8000142:	d344      	bcc.n	80001ce <__udivsi3+0x9e>
 8000144:	0b03      	lsrs	r3, r0, #12
 8000146:	428b      	cmp	r3, r1
 8000148:	d328      	bcc.n	800019c <__udivsi3+0x6c>
 800014a:	0c03      	lsrs	r3, r0, #16
 800014c:	428b      	cmp	r3, r1
 800014e:	d30d      	bcc.n	800016c <__udivsi3+0x3c>
 8000150:	22ff      	movs	r2, #255	; 0xff
 8000152:	0209      	lsls	r1, r1, #8
 8000154:	ba12      	rev	r2, r2
 8000156:	0c03      	lsrs	r3, r0, #16
 8000158:	428b      	cmp	r3, r1
 800015a:	d302      	bcc.n	8000162 <__udivsi3+0x32>
 800015c:	1212      	asrs	r2, r2, #8
 800015e:	0209      	lsls	r1, r1, #8
 8000160:	d065      	beq.n	800022e <__udivsi3+0xfe>
 8000162:	0b03      	lsrs	r3, r0, #12
 8000164:	428b      	cmp	r3, r1
 8000166:	d319      	bcc.n	800019c <__udivsi3+0x6c>
 8000168:	e000      	b.n	800016c <__udivsi3+0x3c>
 800016a:	0a09      	lsrs	r1, r1, #8
 800016c:	0bc3      	lsrs	r3, r0, #15
 800016e:	428b      	cmp	r3, r1
 8000170:	d301      	bcc.n	8000176 <__udivsi3+0x46>
 8000172:	03cb      	lsls	r3, r1, #15
 8000174:	1ac0      	subs	r0, r0, r3
 8000176:	4152      	adcs	r2, r2
 8000178:	0b83      	lsrs	r3, r0, #14
 800017a:	428b      	cmp	r3, r1
 800017c:	d301      	bcc.n	8000182 <__udivsi3+0x52>
 800017e:	038b      	lsls	r3, r1, #14
 8000180:	1ac0      	subs	r0, r0, r3
 8000182:	4152      	adcs	r2, r2
 8000184:	0b43      	lsrs	r3, r0, #13
 8000186:	428b      	cmp	r3, r1
 8000188:	d301      	bcc.n	800018e <__udivsi3+0x5e>
 800018a:	034b      	lsls	r3, r1, #13
 800018c:	1ac0      	subs	r0, r0, r3
 800018e:	4152      	adcs	r2, r2
 8000190:	0b03      	lsrs	r3, r0, #12
 8000192:	428b      	cmp	r3, r1
 8000194:	d301      	bcc.n	800019a <__udivsi3+0x6a>
 8000196:	030b      	lsls	r3, r1, #12
 8000198:	1ac0      	subs	r0, r0, r3
 800019a:	4152      	adcs	r2, r2
 800019c:	0ac3      	lsrs	r3, r0, #11
 800019e:	428b      	cmp	r3, r1
 80001a0:	d301      	bcc.n	80001a6 <__udivsi3+0x76>
 80001a2:	02cb      	lsls	r3, r1, #11
 80001a4:	1ac0      	subs	r0, r0, r3
 80001a6:	4152      	adcs	r2, r2
 80001a8:	0a83      	lsrs	r3, r0, #10
 80001aa:	428b      	cmp	r3, r1
 80001ac:	d301      	bcc.n	80001b2 <__udivsi3+0x82>
 80001ae:	028b      	lsls	r3, r1, #10
 80001b0:	1ac0      	subs	r0, r0, r3
 80001b2:	4152      	adcs	r2, r2
 80001b4:	0a43      	lsrs	r3, r0, #9
 80001b6:	428b      	cmp	r3, r1
 80001b8:	d301      	bcc.n	80001be <__udivsi3+0x8e>
 80001ba:	024b      	lsls	r3, r1, #9
 80001bc:	1ac0      	subs	r0, r0, r3
 80001be:	4152      	adcs	r2, r2
 80001c0:	0a03      	lsrs	r3, r0, #8
 80001c2:	428b      	cmp	r3, r1
 80001c4:	d301      	bcc.n	80001ca <__udivsi3+0x9a>
 80001c6:	020b      	lsls	r3, r1, #8
 80001c8:	1ac0      	subs	r0, r0, r3
 80001ca:	4152      	adcs	r2, r2
 80001cc:	d2cd      	bcs.n	800016a <__udivsi3+0x3a>
 80001ce:	09c3      	lsrs	r3, r0, #7
 80001d0:	428b      	cmp	r3, r1
 80001d2:	d301      	bcc.n	80001d8 <__udivsi3+0xa8>
 80001d4:	01cb      	lsls	r3, r1, #7
 80001d6:	1ac0      	subs	r0, r0, r3
 80001d8:	4152      	adcs	r2, r2
 80001da:	0983      	lsrs	r3, r0, #6
 80001dc:	428b      	cmp	r3, r1
 80001de:	d301      	bcc.n	80001e4 <__udivsi3+0xb4>
 80001e0:	018b      	lsls	r3, r1, #6
 80001e2:	1ac0      	subs	r0, r0, r3
 80001e4:	4152      	adcs	r2, r2
 80001e6:	0943      	lsrs	r3, r0, #5
 80001e8:	428b      	cmp	r3, r1
 80001ea:	d301      	bcc.n	80001f0 <__udivsi3+0xc0>
 80001ec:	014b      	lsls	r3, r1, #5
 80001ee:	1ac0      	subs	r0, r0, r3
 80001f0:	4152      	adcs	r2, r2
 80001f2:	0903      	lsrs	r3, r0, #4
 80001f4:	428b      	cmp	r3, r1
 80001f6:	d301      	bcc.n	80001fc <__udivsi3+0xcc>
 80001f8:	010b      	lsls	r3, r1, #4
 80001fa:	1ac0      	subs	r0, r0, r3
 80001fc:	4152      	adcs	r2, r2
 80001fe:	08c3      	lsrs	r3, r0, #3
 8000200:	428b      	cmp	r3, r1
 8000202:	d301      	bcc.n	8000208 <__udivsi3+0xd8>
 8000204:	00cb      	lsls	r3, r1, #3
 8000206:	1ac0      	subs	r0, r0, r3
 8000208:	4152      	adcs	r2, r2
 800020a:	0883      	lsrs	r3, r0, #2
 800020c:	428b      	cmp	r3, r1
 800020e:	d301      	bcc.n	8000214 <__udivsi3+0xe4>
 8000210:	008b      	lsls	r3, r1, #2
 8000212:	1ac0      	subs	r0, r0, r3
 8000214:	4152      	adcs	r2, r2
 8000216:	0843      	lsrs	r3, r0, #1
 8000218:	428b      	cmp	r3, r1
 800021a:	d301      	bcc.n	8000220 <__udivsi3+0xf0>
 800021c:	004b      	lsls	r3, r1, #1
 800021e:	1ac0      	subs	r0, r0, r3
 8000220:	4152      	adcs	r2, r2
 8000222:	1a41      	subs	r1, r0, r1
 8000224:	d200      	bcs.n	8000228 <__udivsi3+0xf8>
 8000226:	4601      	mov	r1, r0
 8000228:	4152      	adcs	r2, r2
 800022a:	4610      	mov	r0, r2
 800022c:	4770      	bx	lr
 800022e:	e7ff      	b.n	8000230 <__udivsi3+0x100>
 8000230:	b501      	push	{r0, lr}
 8000232:	2000      	movs	r0, #0
 8000234:	f000 f8f0 	bl	8000418 <__aeabi_idiv0>
 8000238:	bd02      	pop	{r1, pc}
 800023a:	46c0      	nop			; (mov r8, r8)

0800023c <__aeabi_uidivmod>:
 800023c:	2900      	cmp	r1, #0
 800023e:	d0f7      	beq.n	8000230 <__udivsi3+0x100>
 8000240:	e776      	b.n	8000130 <__udivsi3>
 8000242:	4770      	bx	lr

08000244 <__divsi3>:
 8000244:	4603      	mov	r3, r0
 8000246:	430b      	orrs	r3, r1
 8000248:	d47f      	bmi.n	800034a <__divsi3+0x106>
 800024a:	2200      	movs	r2, #0
 800024c:	0843      	lsrs	r3, r0, #1
 800024e:	428b      	cmp	r3, r1
 8000250:	d374      	bcc.n	800033c <__divsi3+0xf8>
 8000252:	0903      	lsrs	r3, r0, #4
 8000254:	428b      	cmp	r3, r1
 8000256:	d35f      	bcc.n	8000318 <__divsi3+0xd4>
 8000258:	0a03      	lsrs	r3, r0, #8
 800025a:	428b      	cmp	r3, r1
 800025c:	d344      	bcc.n	80002e8 <__divsi3+0xa4>
 800025e:	0b03      	lsrs	r3, r0, #12
 8000260:	428b      	cmp	r3, r1
 8000262:	d328      	bcc.n	80002b6 <__divsi3+0x72>
 8000264:	0c03      	lsrs	r3, r0, #16
 8000266:	428b      	cmp	r3, r1
 8000268:	d30d      	bcc.n	8000286 <__divsi3+0x42>
 800026a:	22ff      	movs	r2, #255	; 0xff
 800026c:	0209      	lsls	r1, r1, #8
 800026e:	ba12      	rev	r2, r2
 8000270:	0c03      	lsrs	r3, r0, #16
 8000272:	428b      	cmp	r3, r1
 8000274:	d302      	bcc.n	800027c <__divsi3+0x38>
 8000276:	1212      	asrs	r2, r2, #8
 8000278:	0209      	lsls	r1, r1, #8
 800027a:	d065      	beq.n	8000348 <__divsi3+0x104>
 800027c:	0b03      	lsrs	r3, r0, #12
 800027e:	428b      	cmp	r3, r1
 8000280:	d319      	bcc.n	80002b6 <__divsi3+0x72>
 8000282:	e000      	b.n	8000286 <__divsi3+0x42>
 8000284:	0a09      	lsrs	r1, r1, #8
 8000286:	0bc3      	lsrs	r3, r0, #15
 8000288:	428b      	cmp	r3, r1
 800028a:	d301      	bcc.n	8000290 <__divsi3+0x4c>
 800028c:	03cb      	lsls	r3, r1, #15
 800028e:	1ac0      	subs	r0, r0, r3
 8000290:	4152      	adcs	r2, r2
 8000292:	0b83      	lsrs	r3, r0, #14
 8000294:	428b      	cmp	r3, r1
 8000296:	d301      	bcc.n	800029c <__divsi3+0x58>
 8000298:	038b      	lsls	r3, r1, #14
 800029a:	1ac0      	subs	r0, r0, r3
 800029c:	4152      	adcs	r2, r2
 800029e:	0b43      	lsrs	r3, r0, #13
 80002a0:	428b      	cmp	r3, r1
 80002a2:	d301      	bcc.n	80002a8 <__divsi3+0x64>
 80002a4:	034b      	lsls	r3, r1, #13
 80002a6:	1ac0      	subs	r0, r0, r3
 80002a8:	4152      	adcs	r2, r2
 80002aa:	0b03      	lsrs	r3, r0, #12
 80002ac:	428b      	cmp	r3, r1
 80002ae:	d301      	bcc.n	80002b4 <__divsi3+0x70>
 80002b0:	030b      	lsls	r3, r1, #12
 80002b2:	1ac0      	subs	r0, r0, r3
 80002b4:	4152      	adcs	r2, r2
 80002b6:	0ac3      	lsrs	r3, r0, #11
 80002b8:	428b      	cmp	r3, r1
 80002ba:	d301      	bcc.n	80002c0 <__divsi3+0x7c>
 80002bc:	02cb      	lsls	r3, r1, #11
 80002be:	1ac0      	subs	r0, r0, r3
 80002c0:	4152      	adcs	r2, r2
 80002c2:	0a83      	lsrs	r3, r0, #10
 80002c4:	428b      	cmp	r3, r1
 80002c6:	d301      	bcc.n	80002cc <__divsi3+0x88>
 80002c8:	028b      	lsls	r3, r1, #10
 80002ca:	1ac0      	subs	r0, r0, r3
 80002cc:	4152      	adcs	r2, r2
 80002ce:	0a43      	lsrs	r3, r0, #9
 80002d0:	428b      	cmp	r3, r1
 80002d2:	d301      	bcc.n	80002d8 <__divsi3+0x94>
 80002d4:	024b      	lsls	r3, r1, #9
 80002d6:	1ac0      	subs	r0, r0, r3
 80002d8:	4152      	adcs	r2, r2
 80002da:	0a03      	lsrs	r3, r0, #8
 80002dc:	428b      	cmp	r3, r1
 80002de:	d301      	bcc.n	80002e4 <__divsi3+0xa0>
 80002e0:	020b      	lsls	r3, r1, #8
 80002e2:	1ac0      	subs	r0, r0, r3
 80002e4:	4152      	adcs	r2, r2
 80002e6:	d2cd      	bcs.n	8000284 <__divsi3+0x40>
 80002e8:	09c3      	lsrs	r3, r0, #7
 80002ea:	428b      	cmp	r3, r1
 80002ec:	d301      	bcc.n	80002f2 <__divsi3+0xae>
 80002ee:	01cb      	lsls	r3, r1, #7
 80002f0:	1ac0      	subs	r0, r0, r3
 80002f2:	4152      	adcs	r2, r2
 80002f4:	0983      	lsrs	r3, r0, #6
 80002f6:	428b      	cmp	r3, r1
 80002f8:	d301      	bcc.n	80002fe <__divsi3+0xba>
 80002fa:	018b      	lsls	r3, r1, #6
 80002fc:	1ac0      	subs	r0, r0, r3
 80002fe:	4152      	adcs	r2, r2
 8000300:	0943      	lsrs	r3, r0, #5
 8000302:	428b      	cmp	r3, r1
 8000304:	d301      	bcc.n	800030a <__divsi3+0xc6>
 8000306:	014b      	lsls	r3, r1, #5
 8000308:	1ac0      	subs	r0, r0, r3
 800030a:	4152      	adcs	r2, r2
 800030c:	0903      	lsrs	r3, r0, #4
 800030e:	428b      	cmp	r3, r1
 8000310:	d301      	bcc.n	8000316 <__divsi3+0xd2>
 8000312:	010b      	lsls	r3, r1, #4
 8000314:	1ac0      	subs	r0, r0, r3
 8000316:	4152      	adcs	r2, r2
 8000318:	08c3      	lsrs	r3, r0, #3
 800031a:	428b      	cmp	r3, r1
 800031c:	d301      	bcc.n	8000322 <__divsi3+0xde>
 800031e:	00cb      	lsls	r3, r1, #3
 8000320:	1ac0      	subs	r0, r0, r3
 8000322:	4152      	adcs	r2, r2
 8000324:	0883      	lsrs	r3, r0, #2
 8000326:	428b      	cmp	r3, r1
 8000328:	d301      	bcc.n	800032e <__divsi3+0xea>
 800032a:	008b      	lsls	r3, r1, #2
 800032c:	1ac0      	subs	r0, r0, r3
 800032e:	4152      	adcs	r2, r2
 8000330:	0843      	lsrs	r3, r0, #1
 8000332:	428b      	cmp	r3, r1
 8000334:	d301      	bcc.n	800033a <__divsi3+0xf6>
 8000336:	004b      	lsls	r3, r1, #1
 8000338:	1ac0      	subs	r0, r0, r3
 800033a:	4152      	adcs	r2, r2
 800033c:	1a41      	subs	r1, r0, r1
 800033e:	d200      	bcs.n	8000342 <__divsi3+0xfe>
 8000340:	4601      	mov	r1, r0
 8000342:	4152      	adcs	r2, r2
 8000344:	4610      	mov	r0, r2
 8000346:	4770      	bx	lr
 8000348:	e05d      	b.n	8000406 <__divsi3+0x1c2>
 800034a:	0fca      	lsrs	r2, r1, #31
 800034c:	d000      	beq.n	8000350 <__divsi3+0x10c>
 800034e:	4249      	negs	r1, r1
 8000350:	1003      	asrs	r3, r0, #32
 8000352:	d300      	bcc.n	8000356 <__divsi3+0x112>
 8000354:	4240      	negs	r0, r0
 8000356:	4053      	eors	r3, r2
 8000358:	2200      	movs	r2, #0
 800035a:	469c      	mov	ip, r3
 800035c:	0903      	lsrs	r3, r0, #4
 800035e:	428b      	cmp	r3, r1
 8000360:	d32d      	bcc.n	80003be <__divsi3+0x17a>
 8000362:	0a03      	lsrs	r3, r0, #8
 8000364:	428b      	cmp	r3, r1
 8000366:	d312      	bcc.n	800038e <__divsi3+0x14a>
 8000368:	22fc      	movs	r2, #252	; 0xfc
 800036a:	0189      	lsls	r1, r1, #6
 800036c:	ba12      	rev	r2, r2
 800036e:	0a03      	lsrs	r3, r0, #8
 8000370:	428b      	cmp	r3, r1
 8000372:	d30c      	bcc.n	800038e <__divsi3+0x14a>
 8000374:	0189      	lsls	r1, r1, #6
 8000376:	1192      	asrs	r2, r2, #6
 8000378:	428b      	cmp	r3, r1
 800037a:	d308      	bcc.n	800038e <__divsi3+0x14a>
 800037c:	0189      	lsls	r1, r1, #6
 800037e:	1192      	asrs	r2, r2, #6
 8000380:	428b      	cmp	r3, r1
 8000382:	d304      	bcc.n	800038e <__divsi3+0x14a>
 8000384:	0189      	lsls	r1, r1, #6
 8000386:	d03a      	beq.n	80003fe <__divsi3+0x1ba>
 8000388:	1192      	asrs	r2, r2, #6
 800038a:	e000      	b.n	800038e <__divsi3+0x14a>
 800038c:	0989      	lsrs	r1, r1, #6
 800038e:	09c3      	lsrs	r3, r0, #7
 8000390:	428b      	cmp	r3, r1
 8000392:	d301      	bcc.n	8000398 <__divsi3+0x154>
 8000394:	01cb      	lsls	r3, r1, #7
 8000396:	1ac0      	subs	r0, r0, r3
 8000398:	4152      	adcs	r2, r2
 800039a:	0983      	lsrs	r3, r0, #6
 800039c:	428b      	cmp	r3, r1
 800039e:	d301      	bcc.n	80003a4 <__divsi3+0x160>
 80003a0:	018b      	lsls	r3, r1, #6
 80003a2:	1ac0      	subs	r0, r0, r3
 80003a4:	4152      	adcs	r2, r2
 80003a6:	0943      	lsrs	r3, r0, #5
 80003a8:	428b      	cmp	r3, r1
 80003aa:	d301      	bcc.n	80003b0 <__divsi3+0x16c>
 80003ac:	014b      	lsls	r3, r1, #5
 80003ae:	1ac0      	subs	r0, r0, r3
 80003b0:	4152      	adcs	r2, r2
 80003b2:	0903      	lsrs	r3, r0, #4
 80003b4:	428b      	cmp	r3, r1
 80003b6:	d301      	bcc.n	80003bc <__divsi3+0x178>
 80003b8:	010b      	lsls	r3, r1, #4
 80003ba:	1ac0      	subs	r0, r0, r3
 80003bc:	4152      	adcs	r2, r2
 80003be:	08c3      	lsrs	r3, r0, #3
 80003c0:	428b      	cmp	r3, r1
 80003c2:	d301      	bcc.n	80003c8 <__divsi3+0x184>
 80003c4:	00cb      	lsls	r3, r1, #3
 80003c6:	1ac0      	subs	r0, r0, r3
 80003c8:	4152      	adcs	r2, r2
 80003ca:	0883      	lsrs	r3, r0, #2
 80003cc:	428b      	cmp	r3, r1
 80003ce:	d301      	bcc.n	80003d4 <__divsi3+0x190>
 80003d0:	008b      	lsls	r3, r1, #2
 80003d2:	1ac0      	subs	r0, r0, r3
 80003d4:	4152      	adcs	r2, r2
 80003d6:	d2d9      	bcs.n	800038c <__divsi3+0x148>
 80003d8:	0843      	lsrs	r3, r0, #1
 80003da:	428b      	cmp	r3, r1
 80003dc:	d301      	bcc.n	80003e2 <__divsi3+0x19e>
 80003de:	004b      	lsls	r3, r1, #1
 80003e0:	1ac0      	subs	r0, r0, r3
 80003e2:	4152      	adcs	r2, r2
 80003e4:	1a41      	subs	r1, r0, r1
 80003e6:	d200      	bcs.n	80003ea <__divsi3+0x1a6>
 80003e8:	4601      	mov	r1, r0
 80003ea:	4663      	mov	r3, ip
 80003ec:	4152      	adcs	r2, r2
 80003ee:	105b      	asrs	r3, r3, #1
 80003f0:	4610      	mov	r0, r2
 80003f2:	d301      	bcc.n	80003f8 <__divsi3+0x1b4>
 80003f4:	4240      	negs	r0, r0
 80003f6:	2b00      	cmp	r3, #0
 80003f8:	d500      	bpl.n	80003fc <__divsi3+0x1b8>
 80003fa:	4249      	negs	r1, r1
 80003fc:	4770      	bx	lr
 80003fe:	4663      	mov	r3, ip
 8000400:	105b      	asrs	r3, r3, #1
 8000402:	d300      	bcc.n	8000406 <__divsi3+0x1c2>
 8000404:	4240      	negs	r0, r0
 8000406:	b501      	push	{r0, lr}
 8000408:	2000      	movs	r0, #0
 800040a:	f000 f805 	bl	8000418 <__aeabi_idiv0>
 800040e:	bd02      	pop	{r1, pc}

08000410 <__aeabi_idivmod>:
 8000410:	2900      	cmp	r1, #0
 8000412:	d0f8      	beq.n	8000406 <__divsi3+0x1c2>
 8000414:	e716      	b.n	8000244 <__divsi3>
 8000416:	4770      	bx	lr

08000418 <__aeabi_idiv0>:
 8000418:	4770      	bx	lr
 800041a:	46c0      	nop			; (mov r8, r8)

0800041c <readADC>:
 800041c:	b510      	push	{r4, lr}
 800041e:	4c08      	ldr	r4, [pc, #32]	; (8000440 <readADC+0x24>)
 8000420:	0020      	movs	r0, r4
 8000422:	f000 feff 	bl	8001224 <HAL_ADC_Start>
 8000426:	2164      	movs	r1, #100	; 0x64
 8000428:	0020      	movs	r0, r4
 800042a:	f000 fd01 	bl	8000e30 <HAL_ADC_PollForConversion>
 800042e:	0020      	movs	r0, r4
 8000430:	f000 ff5e 	bl	80012f0 <HAL_ADC_Stop>
 8000434:	0020      	movs	r0, r4
 8000436:	f000 fd59 	bl	8000eec <HAL_ADC_GetValue>
 800043a:	b280      	uxth	r0, r0
 800043c:	bd10      	pop	{r4, pc}
 800043e:	46c0      	nop			; (mov r8, r8)
 8000440:	20000028 	.word	0x20000028

08000444 <SystemClock_Config>:
 8000444:	b510      	push	{r4, lr}
 8000446:	b08c      	sub	sp, #48	; 0x30
 8000448:	2214      	movs	r2, #20
 800044a:	2100      	movs	r1, #0
 800044c:	a807      	add	r0, sp, #28
 800044e:	f002 fd75 	bl	8002f3c <memset>
 8000452:	2214      	movs	r2, #20
 8000454:	2100      	movs	r1, #0
 8000456:	4668      	mov	r0, sp
 8000458:	f002 fd70 	bl	8002f3c <memset>
 800045c:	2380      	movs	r3, #128	; 0x80
 800045e:	2401      	movs	r4, #1
 8000460:	025b      	lsls	r3, r3, #9
 8000462:	a805      	add	r0, sp, #20
 8000464:	9405      	str	r4, [sp, #20]
 8000466:	9306      	str	r3, [sp, #24]
 8000468:	f001 f994 	bl	8001794 <HAL_RCC_OscConfig>
 800046c:	2800      	cmp	r0, #0
 800046e:	d001      	beq.n	8000474 <SystemClock_Config+0x30>
 8000470:	b672      	cpsid	i
 8000472:	e7fe      	b.n	8000472 <SystemClock_Config+0x2e>
 8000474:	2307      	movs	r3, #7
 8000476:	9002      	str	r0, [sp, #8]
 8000478:	9003      	str	r0, [sp, #12]
 800047a:	9004      	str	r0, [sp, #16]
 800047c:	0021      	movs	r1, r4
 800047e:	4668      	mov	r0, sp
 8000480:	9300      	str	r3, [sp, #0]
 8000482:	9401      	str	r4, [sp, #4]
 8000484:	f001 faf6 	bl	8001a74 <HAL_RCC_ClockConfig>
 8000488:	2800      	cmp	r0, #0
 800048a:	d001      	beq.n	8000490 <SystemClock_Config+0x4c>
 800048c:	b672      	cpsid	i
 800048e:	e7fe      	b.n	800048e <SystemClock_Config+0x4a>
 8000490:	b00c      	add	sp, #48	; 0x30
 8000492:	bd10      	pop	{r4, pc}

08000494 <main>:
 8000494:	b5f0      	push	{r4, r5, r6, r7, lr}
 8000496:	b0a5      	sub	sp, #148	; 0x94
 8000498:	f000 fb6c 	bl	8000b74 <HAL_Init>
 800049c:	f7ff ffd2 	bl	8000444 <SystemClock_Config>
 80004a0:	2002      	movs	r0, #2
 80004a2:	4bc5      	ldr	r3, [pc, #788]	; (80007b8 <main+0x324>)
 80004a4:	24e1      	movs	r4, #225	; 0xe1
 80004a6:	6b59      	ldr	r1, [r3, #52]	; 0x34
 80004a8:	260c      	movs	r6, #12
 80004aa:	4301      	orrs	r1, r0
 80004ac:	6359      	str	r1, [r3, #52]	; 0x34
 80004ae:	6b5a      	ldr	r2, [r3, #52]	; 0x34
 80004b0:	0264      	lsls	r4, r4, #9
 80004b2:	4002      	ands	r2, r0
 80004b4:	9206      	str	r2, [sp, #24]
 80004b6:	9a06      	ldr	r2, [sp, #24]
 80004b8:	6b59      	ldr	r1, [r3, #52]	; 0x34
 80004ba:	1800      	adds	r0, r0, r0
 80004bc:	4301      	orrs	r1, r0
 80004be:	6359      	str	r1, [r3, #52]	; 0x34
 80004c0:	6b5a      	ldr	r2, [r3, #52]	; 0x34
 80004c2:	4002      	ands	r2, r0
 80004c4:	9207      	str	r2, [sp, #28]
 80004c6:	9a07      	ldr	r2, [sp, #28]
 80004c8:	2201      	movs	r2, #1
 80004ca:	6b59      	ldr	r1, [r3, #52]	; 0x34
 80004cc:	3005      	adds	r0, #5
 80004ce:	4311      	orrs	r1, r2
 80004d0:	6359      	str	r1, [r3, #52]	; 0x34
 80004d2:	6b59      	ldr	r1, [r3, #52]	; 0x34
 80004d4:	4011      	ands	r1, r2
 80004d6:	9108      	str	r1, [sp, #32]
 80004d8:	9908      	ldr	r1, [sp, #32]
 80004da:	6b99      	ldr	r1, [r3, #56]	; 0x38
 80004dc:	4311      	orrs	r1, r2
 80004de:	6399      	str	r1, [r3, #56]	; 0x38
 80004e0:	6b9b      	ldr	r3, [r3, #56]	; 0x38
 80004e2:	401a      	ands	r2, r3
 80004e4:	9205      	str	r2, [sp, #20]
 80004e6:	2200      	movs	r2, #0
 80004e8:	0011      	movs	r1, r2
 80004ea:	9b05      	ldr	r3, [sp, #20]
 80004ec:	f000 ff1e 	bl	800132c <HAL_NVIC_SetPriority>
 80004f0:	2009      	movs	r0, #9
 80004f2:	f000 ff45 	bl	8001380 <HAL_NVIC_EnableIRQ>
 80004f6:	2200      	movs	r2, #0
 80004f8:	200a      	movs	r0, #10
 80004fa:	0011      	movs	r1, r2
 80004fc:	f000 ff16 	bl	800132c <HAL_NVIC_SetPriority>
 8000500:	200a      	movs	r0, #10
 8000502:	f000 ff3d 	bl	8001380 <HAL_NVIC_EnableIRQ>
 8000506:	4dad      	ldr	r5, [pc, #692]	; (80007bc <main+0x328>)
 8000508:	4bad      	ldr	r3, [pc, #692]	; (80007c0 <main+0x32c>)
 800050a:	0028      	movs	r0, r5
 800050c:	602b      	str	r3, [r5, #0]
 800050e:	2300      	movs	r3, #0
 8000510:	606c      	str	r4, [r5, #4]
 8000512:	60ab      	str	r3, [r5, #8]
 8000514:	60eb      	str	r3, [r5, #12]
 8000516:	612b      	str	r3, [r5, #16]
 8000518:	616e      	str	r6, [r5, #20]
 800051a:	61ab      	str	r3, [r5, #24]
 800051c:	61eb      	str	r3, [r5, #28]
 800051e:	622b      	str	r3, [r5, #32]
 8000520:	626b      	str	r3, [r5, #36]	; 0x24
 8000522:	62ab      	str	r3, [r5, #40]	; 0x28
 8000524:	f002 fb8e 	bl	8002c44 <HAL_UART_Init>
 8000528:	2800      	cmp	r0, #0
 800052a:	d001      	beq.n	8000530 <main+0x9c>
 800052c:	b672      	cpsid	i
 800052e:	e7fe      	b.n	800052e <main+0x9a>
 8000530:	4fa4      	ldr	r7, [pc, #656]	; (80007c4 <main+0x330>)
 8000532:	4ba5      	ldr	r3, [pc, #660]	; (80007c8 <main+0x334>)
 8000534:	60b8      	str	r0, [r7, #8]
 8000536:	60f8      	str	r0, [r7, #12]
 8000538:	6138      	str	r0, [r7, #16]
 800053a:	61b8      	str	r0, [r7, #24]
 800053c:	61f8      	str	r0, [r7, #28]
 800053e:	6238      	str	r0, [r7, #32]
 8000540:	6278      	str	r0, [r7, #36]	; 0x24
 8000542:	62b8      	str	r0, [r7, #40]	; 0x28
 8000544:	0038      	movs	r0, r7
 8000546:	603b      	str	r3, [r7, #0]
 8000548:	607c      	str	r4, [r7, #4]
 800054a:	617e      	str	r6, [r7, #20]
 800054c:	f002 fb7a 	bl	8002c44 <HAL_UART_Init>
 8000550:	1e01      	subs	r1, r0, #0
 8000552:	d001      	beq.n	8000558 <main+0xc4>
 8000554:	b672      	cpsid	i
 8000556:	e7fe      	b.n	8000556 <main+0xc2>
 8000558:	0038      	movs	r0, r7
 800055a:	f002 fc81 	bl	8002e60 <HAL_UARTEx_SetTxFifoThreshold>
 800055e:	1e01      	subs	r1, r0, #0
 8000560:	d001      	beq.n	8000566 <main+0xd2>
 8000562:	b672      	cpsid	i
 8000564:	e7fe      	b.n	8000564 <main+0xd0>
 8000566:	0038      	movs	r0, r7
 8000568:	f002 fc9e 	bl	8002ea8 <HAL_UARTEx_SetRxFifoThreshold>
 800056c:	2800      	cmp	r0, #0
 800056e:	d001      	beq.n	8000574 <main+0xe0>
 8000570:	b672      	cpsid	i
 8000572:	e7fe      	b.n	8000572 <main+0xde>
 8000574:	0038      	movs	r0, r7
 8000576:	f002 fc55 	bl	8002e24 <HAL_UARTEx_DisableFifoMode>
 800057a:	1e04      	subs	r4, r0, #0
 800057c:	d001      	beq.n	8000582 <main+0xee>
 800057e:	b672      	cpsid	i
 8000580:	e7fe      	b.n	8000580 <main+0xec>
 8000582:	0001      	movs	r1, r0
 8000584:	2210      	movs	r2, #16
 8000586:	a80c      	add	r0, sp, #48	; 0x30
 8000588:	f002 fcd8 	bl	8002f3c <memset>
 800058c:	0032      	movs	r2, r6
 800058e:	0021      	movs	r1, r4
 8000590:	a809      	add	r0, sp, #36	; 0x24
 8000592:	f002 fcd3 	bl	8002f3c <memset>
 8000596:	221c      	movs	r2, #28
 8000598:	0021      	movs	r1, r4
 800059a:	a810      	add	r0, sp, #64	; 0x40
 800059c:	f002 fcce 	bl	8002f3c <memset>
 80005a0:	2234      	movs	r2, #52	; 0x34
 80005a2:	0021      	movs	r1, r4
 80005a4:	a817      	add	r0, sp, #92	; 0x5c
 80005a6:	f002 fcc9 	bl	8002f3c <memset>
 80005aa:	4e88      	ldr	r6, [pc, #544]	; (80007cc <main+0x338>)
 80005ac:	4b88      	ldr	r3, [pc, #544]	; (80007d0 <main+0x33c>)
 80005ae:	0030      	movs	r0, r6
 80005b0:	6033      	str	r3, [r6, #0]
 80005b2:	4b88      	ldr	r3, [pc, #544]	; (80007d4 <main+0x340>)
 80005b4:	6074      	str	r4, [r6, #4]
 80005b6:	60b4      	str	r4, [r6, #8]
 80005b8:	60f3      	str	r3, [r6, #12]
 80005ba:	6134      	str	r4, [r6, #16]
 80005bc:	6174      	str	r4, [r6, #20]
 80005be:	61b4      	str	r4, [r6, #24]
 80005c0:	f001 fd02 	bl	8001fc8 <HAL_TIM_Base_Init>
 80005c4:	2800      	cmp	r0, #0
 80005c6:	d001      	beq.n	80005cc <main+0x138>
 80005c8:	b672      	cpsid	i
 80005ca:	e7fe      	b.n	80005ca <main+0x136>
 80005cc:	2380      	movs	r3, #128	; 0x80
 80005ce:	0030      	movs	r0, r6
 80005d0:	015b      	lsls	r3, r3, #5
 80005d2:	a90c      	add	r1, sp, #48	; 0x30
 80005d4:	930c      	str	r3, [sp, #48]	; 0x30
 80005d6:	f001 fe17 	bl	8002208 <HAL_TIM_ConfigClockSource>
 80005da:	2800      	cmp	r0, #0
 80005dc:	d001      	beq.n	80005e2 <main+0x14e>
 80005de:	b672      	cpsid	i
 80005e0:	e7fe      	b.n	80005e0 <main+0x14c>
 80005e2:	0030      	movs	r0, r6
 80005e4:	f001 fd1a 	bl	800201c <HAL_TIM_PWM_Init>
 80005e8:	2800      	cmp	r0, #0
 80005ea:	d001      	beq.n	80005f0 <main+0x15c>
 80005ec:	b672      	cpsid	i
 80005ee:	e7fe      	b.n	80005ee <main+0x15a>
 80005f0:	9009      	str	r0, [sp, #36]	; 0x24
 80005f2:	900a      	str	r0, [sp, #40]	; 0x28
 80005f4:	900b      	str	r0, [sp, #44]	; 0x2c
 80005f6:	a909      	add	r1, sp, #36	; 0x24
 80005f8:	0030      	movs	r0, r6
 80005fa:	f001 ff7d 	bl	80024f8 <HAL_TIMEx_MasterConfigSynchronization>
 80005fe:	1e02      	subs	r2, r0, #0
 8000600:	d001      	beq.n	8000606 <main+0x172>
 8000602:	b672      	cpsid	i
 8000604:	e7fe      	b.n	8000604 <main+0x170>
 8000606:	4b74      	ldr	r3, [pc, #464]	; (80007d8 <main+0x344>)
 8000608:	9011      	str	r0, [sp, #68]	; 0x44
 800060a:	9012      	str	r0, [sp, #72]	; 0x48
 800060c:	9013      	str	r0, [sp, #76]	; 0x4c
 800060e:	9014      	str	r0, [sp, #80]	; 0x50
 8000610:	9015      	str	r0, [sp, #84]	; 0x54
 8000612:	9016      	str	r0, [sp, #88]	; 0x58
 8000614:	a910      	add	r1, sp, #64	; 0x40
 8000616:	0030      	movs	r0, r6
 8000618:	9310      	str	r3, [sp, #64]	; 0x40
 800061a:	f001 fd65 	bl	80020e8 <HAL_TIM_PWM_ConfigChannel>
 800061e:	2800      	cmp	r0, #0
 8000620:	d001      	beq.n	8000626 <main+0x192>
 8000622:	b672      	cpsid	i
 8000624:	e7fe      	b.n	8000624 <main+0x190>
 8000626:	2280      	movs	r2, #128	; 0x80
 8000628:	0192      	lsls	r2, r2, #6
 800062a:	921c      	str	r2, [sp, #112]	; 0x70
 800062c:	2280      	movs	r2, #128	; 0x80
 800062e:	2300      	movs	r3, #0
 8000630:	0492      	lsls	r2, r2, #18
 8000632:	0030      	movs	r0, r6
 8000634:	a917      	add	r1, sp, #92	; 0x5c
 8000636:	9317      	str	r3, [sp, #92]	; 0x5c
 8000638:	9318      	str	r3, [sp, #96]	; 0x60
 800063a:	9319      	str	r3, [sp, #100]	; 0x64
 800063c:	931a      	str	r3, [sp, #104]	; 0x68
 800063e:	931b      	str	r3, [sp, #108]	; 0x6c
 8000640:	931d      	str	r3, [sp, #116]	; 0x74
 8000642:	931e      	str	r3, [sp, #120]	; 0x78
 8000644:	931f      	str	r3, [sp, #124]	; 0x7c
 8000646:	9220      	str	r2, [sp, #128]	; 0x80
 8000648:	9321      	str	r3, [sp, #132]	; 0x84
 800064a:	9322      	str	r3, [sp, #136]	; 0x88
 800064c:	9323      	str	r3, [sp, #140]	; 0x8c
 800064e:	f001 ff83 	bl	8002558 <HAL_TIMEx_ConfigBreakDeadTime>
 8000652:	9001      	str	r0, [sp, #4]
 8000654:	2800      	cmp	r0, #0
 8000656:	d001      	beq.n	800065c <main+0x1c8>
 8000658:	b672      	cpsid	i
 800065a:	e7fe      	b.n	800065a <main+0x1c6>
 800065c:	0030      	movs	r0, r6
 800065e:	f000 f939 	bl	80008d4 <HAL_TIM_MspPostInit>
 8000662:	220c      	movs	r2, #12
 8000664:	9901      	ldr	r1, [sp, #4]
 8000666:	a817      	add	r0, sp, #92	; 0x5c
 8000668:	f002 fc68 	bl	8002f3c <memset>
 800066c:	4c5b      	ldr	r4, [pc, #364]	; (80007dc <main+0x348>)
 800066e:	4b5c      	ldr	r3, [pc, #368]	; (80007e0 <main+0x34c>)
 8000670:	9a01      	ldr	r2, [sp, #4]
 8000672:	6023      	str	r3, [r4, #0]
 8000674:	23c0      	movs	r3, #192	; 0xc0
 8000676:	061b      	lsls	r3, r3, #24
 8000678:	6063      	str	r3, [r4, #4]
 800067a:	9b01      	ldr	r3, [sp, #4]
 800067c:	0020      	movs	r0, r4
 800067e:	60a3      	str	r3, [r4, #8]
 8000680:	60e3      	str	r3, [r4, #12]
 8000682:	6123      	str	r3, [r4, #16]
 8000684:	2304      	movs	r3, #4
 8000686:	6163      	str	r3, [r4, #20]
 8000688:	9b01      	ldr	r3, [sp, #4]
 800068a:	6262      	str	r2, [r4, #36]	; 0x24
 800068c:	8323      	strh	r3, [r4, #24]
 800068e:	76a3      	strb	r3, [r4, #26]
 8000690:	2301      	movs	r3, #1
 8000692:	61e3      	str	r3, [r4, #28]
 8000694:	18e3      	adds	r3, r4, r3
 8000696:	77da      	strb	r2, [r3, #31]
 8000698:	0023      	movs	r3, r4
 800069a:	332c      	adds	r3, #44	; 0x2c
 800069c:	701a      	strb	r2, [r3, #0]
 800069e:	0023      	movs	r3, r4
 80006a0:	333c      	adds	r3, #60	; 0x3c
 80006a2:	62a2      	str	r2, [r4, #40]	; 0x28
 80006a4:	6322      	str	r2, [r4, #48]	; 0x30
 80006a6:	6362      	str	r2, [r4, #52]	; 0x34
 80006a8:	63a2      	str	r2, [r4, #56]	; 0x38
 80006aa:	701a      	strb	r2, [r3, #0]
 80006ac:	64e2      	str	r2, [r4, #76]	; 0x4c
 80006ae:	f000 fa95 	bl	8000bdc <HAL_ADC_Init>
 80006b2:	2800      	cmp	r0, #0
 80006b4:	d001      	beq.n	80006ba <main+0x226>
 80006b6:	b672      	cpsid	i
 80006b8:	e7fe      	b.n	80006b8 <main+0x224>
 80006ba:	4b4a      	ldr	r3, [pc, #296]	; (80007e4 <main+0x350>)
 80006bc:	9018      	str	r0, [sp, #96]	; 0x60
 80006be:	9019      	str	r0, [sp, #100]	; 0x64
 80006c0:	a917      	add	r1, sp, #92	; 0x5c
 80006c2:	0020      	movs	r0, r4
 80006c4:	9317      	str	r3, [sp, #92]	; 0x5c
 80006c6:	f000 fc15 	bl	8000ef4 <HAL_ADC_ConfigChannel>
 80006ca:	1e04      	subs	r4, r0, #0
 80006cc:	d001      	beq.n	80006d2 <main+0x23e>
 80006ce:	b672      	cpsid	i
 80006d0:	e7fe      	b.n	80006d0 <main+0x23c>
 80006d2:	0001      	movs	r1, r0
 80006d4:	0030      	movs	r0, r6
 80006d6:	f001 feb7 	bl	8002448 <HAL_TIM_PWM_Start>
 80006da:	0021      	movs	r1, r4
 80006dc:	0030      	movs	r0, r6
 80006de:	f001 ff07 	bl	80024f0 <HAL_TIMEx_PWMN_Start>
 80006e2:	0038      	movs	r0, r7
 80006e4:	27f4      	movs	r7, #244	; 0xf4
 80006e6:	2280      	movs	r2, #128	; 0x80
 80006e8:	493f      	ldr	r1, [pc, #252]	; (80007e8 <main+0x354>)
 80006ea:	f002 fb3d 	bl	8002d68 <HAL_UART_Receive_DMA>
 80006ee:	2280      	movs	r2, #128	; 0x80
 80006f0:	0028      	movs	r0, r5
 80006f2:	493e      	ldr	r1, [pc, #248]	; (80007ec <main+0x358>)
 80006f4:	f002 fb38 	bl	8002d68 <HAL_UART_Receive_DMA>
 80006f8:	37ff      	adds	r7, #255	; 0xff
 80006fa:	9402      	str	r4, [sp, #8]
 80006fc:	9401      	str	r4, [sp, #4]
 80006fe:	f7ff fe8d 	bl	800041c <readADC>
 8000702:	2c00      	cmp	r4, #0
 8000704:	d151      	bne.n	80007aa <main+0x316>
 8000706:	4c3a      	ldr	r4, [pc, #232]	; (80007f0 <main+0x35c>)
 8000708:	370a      	adds	r7, #10
 800070a:	b2bf      	uxth	r7, r7
 800070c:	42bc      	cmp	r4, r7
 800070e:	41a4      	sbcs	r4, r4
 8000710:	2001      	movs	r0, #1
 8000712:	f000 fa4d 	bl	8000bb0 <HAL_Delay>
 8000716:	6833      	ldr	r3, [r6, #0]
 8000718:	2130      	movs	r1, #48	; 0x30
 800071a:	635f      	str	r7, [r3, #52]	; 0x34
 800071c:	2300      	movs	r3, #0
 800071e:	aa04      	add	r2, sp, #16
 8000720:	1852      	adds	r2, r2, r1
 8000722:	7013      	strb	r3, [r2, #0]
 8000724:	2280      	movs	r2, #128	; 0x80
 8000726:	4b27      	ldr	r3, [pc, #156]	; (80007c4 <main+0x330>)
 8000728:	4264      	negs	r4, r4
 800072a:	6fdb      	ldr	r3, [r3, #124]	; 0x7c
 800072c:	681b      	ldr	r3, [r3, #0]
 800072e:	685b      	ldr	r3, [r3, #4]
 8000730:	1ad3      	subs	r3, r2, r3
 8000732:	9a01      	ldr	r2, [sp, #4]
 8000734:	1a9b      	subs	r3, r3, r2
 8000736:	d500      	bpl.n	800073a <main+0x2a6>
 8000738:	3380      	adds	r3, #128	; 0x80
 800073a:	2b00      	cmp	r3, #0
 800073c:	dd13      	ble.n	8000766 <main+0x2d2>
 800073e:	2130      	movs	r1, #48	; 0x30
 8000740:	9a01      	ldr	r2, [sp, #4]
 8000742:	4b29      	ldr	r3, [pc, #164]	; (80007e8 <main+0x354>)
 8000744:	5c9b      	ldrb	r3, [r3, r2]
 8000746:	aa04      	add	r2, sp, #16
 8000748:	1852      	adds	r2, r2, r1
 800074a:	7013      	strb	r3, [r2, #0]
 800074c:	9b01      	ldr	r3, [sp, #4]
 800074e:	3301      	adds	r3, #1
 8000750:	9301      	str	r3, [sp, #4]
 8000752:	2b80      	cmp	r3, #128	; 0x80
 8000754:	d101      	bne.n	800075a <main+0x2c6>
 8000756:	2300      	movs	r3, #0
 8000758:	9301      	str	r3, [sp, #4]
 800075a:	2364      	movs	r3, #100	; 0x64
 800075c:	2201      	movs	r2, #1
 800075e:	0028      	movs	r0, r5
 8000760:	a910      	add	r1, sp, #64	; 0x40
 8000762:	f002 f9c3 	bl	8002aec <HAL_UART_Transmit>
 8000766:	2300      	movs	r3, #0
 8000768:	2180      	movs	r1, #128	; 0x80
 800076a:	aa17      	add	r2, sp, #92	; 0x5c
 800076c:	7013      	strb	r3, [r2, #0]
 800076e:	6feb      	ldr	r3, [r5, #124]	; 0x7c
 8000770:	681b      	ldr	r3, [r3, #0]
 8000772:	685b      	ldr	r3, [r3, #4]
 8000774:	1acb      	subs	r3, r1, r3
 8000776:	9902      	ldr	r1, [sp, #8]
 8000778:	1a5b      	subs	r3, r3, r1
 800077a:	d500      	bpl.n	800077e <main+0x2ea>
 800077c:	3380      	adds	r3, #128	; 0x80
 800077e:	2b00      	cmp	r3, #0
 8000780:	ddbd      	ble.n	80006fe <main+0x26a>
 8000782:	9b02      	ldr	r3, [sp, #8]
 8000784:	9902      	ldr	r1, [sp, #8]
 8000786:	3301      	adds	r3, #1
 8000788:	9303      	str	r3, [sp, #12]
 800078a:	4b18      	ldr	r3, [pc, #96]	; (80007ec <main+0x358>)
 800078c:	5c5b      	ldrb	r3, [r3, r1]
 800078e:	7013      	strb	r3, [r2, #0]
 8000790:	297f      	cmp	r1, #127	; 0x7f
 8000792:	d101      	bne.n	8000798 <main+0x304>
 8000794:	2300      	movs	r3, #0
 8000796:	9303      	str	r3, [sp, #12]
 8000798:	2300      	movs	r3, #0
 800079a:	2201      	movs	r2, #1
 800079c:	4809      	ldr	r0, [pc, #36]	; (80007c4 <main+0x330>)
 800079e:	a917      	add	r1, sp, #92	; 0x5c
 80007a0:	f002 f9a4 	bl	8002aec <HAL_UART_Transmit>
 80007a4:	9b03      	ldr	r3, [sp, #12]
 80007a6:	9302      	str	r3, [sp, #8]
 80007a8:	e7a9      	b.n	80006fe <main+0x26a>
 80007aa:	230a      	movs	r3, #10
 80007ac:	3f0a      	subs	r7, #10
 80007ae:	b2bf      	uxth	r7, r7
 80007b0:	42bb      	cmp	r3, r7
 80007b2:	41a4      	sbcs	r4, r4
 80007b4:	e7ac      	b.n	8000710 <main+0x27c>
 80007b6:	46c0      	nop			; (mov r8, r8)
 80007b8:	40021000 	.word	0x40021000
 80007bc:	20000220 	.word	0x20000220
 80007c0:	40004400 	.word	0x40004400
 80007c4:	20000190 	.word	0x20000190
 80007c8:	40013800 	.word	0x40013800
 80007cc:	20000144 	.word	0x20000144
 80007d0:	40012c00 	.word	0x40012c00
 80007d4:	00007cff 	.word	0x00007cff
 80007d8:	00010060 	.word	0x00010060
 80007dc:	20000028 	.word	0x20000028
 80007e0:	40012400 	.word	0x40012400
 80007e4:	30001000 	.word	0x30001000
 80007e8:	200002b0 	.word	0x200002b0
 80007ec:	20000330 	.word	0x20000330
 80007f0:	00007cf5 	.word	0x00007cf5

080007f4 <Error_Handler>:
 80007f4:	b672      	cpsid	i
 80007f6:	e7fe      	b.n	80007f6 <Error_Handler+0x2>

080007f8 <HAL_MspInit>:
 80007f8:	2001      	movs	r0, #1
 80007fa:	4b0a      	ldr	r3, [pc, #40]	; (8000824 <HAL_MspInit+0x2c>)
 80007fc:	b082      	sub	sp, #8
 80007fe:	6c19      	ldr	r1, [r3, #64]	; 0x40
 8000800:	4301      	orrs	r1, r0
 8000802:	6419      	str	r1, [r3, #64]	; 0x40
 8000804:	2180      	movs	r1, #128	; 0x80
 8000806:	6c1a      	ldr	r2, [r3, #64]	; 0x40
 8000808:	0549      	lsls	r1, r1, #21
 800080a:	4002      	ands	r2, r0
 800080c:	9200      	str	r2, [sp, #0]
 800080e:	9a00      	ldr	r2, [sp, #0]
 8000810:	6bda      	ldr	r2, [r3, #60]	; 0x3c
 8000812:	430a      	orrs	r2, r1
 8000814:	63da      	str	r2, [r3, #60]	; 0x3c
 8000816:	6bdb      	ldr	r3, [r3, #60]	; 0x3c
 8000818:	400b      	ands	r3, r1
 800081a:	9301      	str	r3, [sp, #4]
 800081c:	9b01      	ldr	r3, [sp, #4]
 800081e:	b002      	add	sp, #8
 8000820:	4770      	bx	lr
 8000822:	46c0      	nop			; (mov r8, r8)
 8000824:	40021000 	.word	0x40021000

08000828 <HAL_ADC_MspInit>:
 8000828:	b510      	push	{r4, lr}
 800082a:	0004      	movs	r4, r0
 800082c:	b08e      	sub	sp, #56	; 0x38
 800082e:	2214      	movs	r2, #20
 8000830:	2100      	movs	r1, #0
 8000832:	a802      	add	r0, sp, #8
 8000834:	f002 fb82 	bl	8002f3c <memset>
 8000838:	221c      	movs	r2, #28
 800083a:	2100      	movs	r1, #0
 800083c:	a807      	add	r0, sp, #28
 800083e:	f002 fb7d 	bl	8002f3c <memset>
 8000842:	4b17      	ldr	r3, [pc, #92]	; (80008a0 <HAL_ADC_MspInit+0x78>)
 8000844:	6822      	ldr	r2, [r4, #0]
 8000846:	429a      	cmp	r2, r3
 8000848:	d127      	bne.n	800089a <HAL_ADC_MspInit+0x72>
 800084a:	2380      	movs	r3, #128	; 0x80
 800084c:	a807      	add	r0, sp, #28
 800084e:	01db      	lsls	r3, r3, #7
 8000850:	9307      	str	r3, [sp, #28]
 8000852:	f001 f9d5 	bl	8001c00 <HAL_RCCEx_PeriphCLKConfig>
 8000856:	2800      	cmp	r0, #0
 8000858:	d001      	beq.n	800085e <HAL_ADC_MspInit+0x36>
 800085a:	f7ff ffcb 	bl	80007f4 <Error_Handler>
 800085e:	2080      	movs	r0, #128	; 0x80
 8000860:	4b10      	ldr	r3, [pc, #64]	; (80008a4 <HAL_ADC_MspInit+0x7c>)
 8000862:	0340      	lsls	r0, r0, #13
 8000864:	6c19      	ldr	r1, [r3, #64]	; 0x40
 8000866:	4301      	orrs	r1, r0
 8000868:	6419      	str	r1, [r3, #64]	; 0x40
 800086a:	2101      	movs	r1, #1
 800086c:	6c1a      	ldr	r2, [r3, #64]	; 0x40
 800086e:	4002      	ands	r2, r0
 8000870:	9200      	str	r2, [sp, #0]
 8000872:	9a00      	ldr	r2, [sp, #0]
 8000874:	6b5a      	ldr	r2, [r3, #52]	; 0x34
 8000876:	20a0      	movs	r0, #160	; 0xa0
 8000878:	430a      	orrs	r2, r1
 800087a:	635a      	str	r2, [r3, #52]	; 0x34
 800087c:	6b5b      	ldr	r3, [r3, #52]	; 0x34
 800087e:	05c0      	lsls	r0, r0, #23
 8000880:	400b      	ands	r3, r1
 8000882:	9301      	str	r3, [sp, #4]
 8000884:	9b01      	ldr	r3, [sp, #4]
 8000886:	2380      	movs	r3, #128	; 0x80
 8000888:	015b      	lsls	r3, r3, #5
 800088a:	9302      	str	r3, [sp, #8]
 800088c:	2303      	movs	r3, #3
 800088e:	9303      	str	r3, [sp, #12]
 8000890:	2300      	movs	r3, #0
 8000892:	a902      	add	r1, sp, #8
 8000894:	9304      	str	r3, [sp, #16]
 8000896:	f000 fecb 	bl	8001630 <HAL_GPIO_Init>
 800089a:	b00e      	add	sp, #56	; 0x38
 800089c:	bd10      	pop	{r4, pc}
 800089e:	46c0      	nop			; (mov r8, r8)
 80008a0:	40012400 	.word	0x40012400
 80008a4:	40021000 	.word	0x40021000

080008a8 <HAL_TIM_Base_MspInit>:
 80008a8:	4b08      	ldr	r3, [pc, #32]	; (80008cc <HAL_TIM_Base_MspInit+0x24>)
 80008aa:	6802      	ldr	r2, [r0, #0]
 80008ac:	b082      	sub	sp, #8
 80008ae:	429a      	cmp	r2, r3
 80008b0:	d109      	bne.n	80008c6 <HAL_TIM_Base_MspInit+0x1e>
 80008b2:	2080      	movs	r0, #128	; 0x80
 80008b4:	4a06      	ldr	r2, [pc, #24]	; (80008d0 <HAL_TIM_Base_MspInit+0x28>)
 80008b6:	0100      	lsls	r0, r0, #4
 80008b8:	6c11      	ldr	r1, [r2, #64]	; 0x40
 80008ba:	4301      	orrs	r1, r0
 80008bc:	6411      	str	r1, [r2, #64]	; 0x40
 80008be:	6c13      	ldr	r3, [r2, #64]	; 0x40
 80008c0:	4003      	ands	r3, r0
 80008c2:	9301      	str	r3, [sp, #4]
 80008c4:	9b01      	ldr	r3, [sp, #4]
 80008c6:	b002      	add	sp, #8
 80008c8:	4770      	bx	lr
 80008ca:	46c0      	nop			; (mov r8, r8)
 80008cc:	40012c00 	.word	0x40012c00
 80008d0:	40021000 	.word	0x40021000

080008d4 <HAL_TIM_MspPostInit>:
 80008d4:	b510      	push	{r4, lr}
 80008d6:	0004      	movs	r4, r0
 80008d8:	b086      	sub	sp, #24
 80008da:	2214      	movs	r2, #20
 80008dc:	2100      	movs	r1, #0
 80008de:	a801      	add	r0, sp, #4
 80008e0:	f002 fb2c 	bl	8002f3c <memset>
 80008e4:	4b12      	ldr	r3, [pc, #72]	; (8000930 <HAL_TIM_MspPostInit+0x5c>)
 80008e6:	6822      	ldr	r2, [r4, #0]
 80008e8:	429a      	cmp	r2, r3
 80008ea:	d11f      	bne.n	800092c <HAL_TIM_MspPostInit+0x58>
 80008ec:	2001      	movs	r0, #1
 80008ee:	4a11      	ldr	r2, [pc, #68]	; (8000934 <HAL_TIM_MspPostInit+0x60>)
 80008f0:	2402      	movs	r4, #2
 80008f2:	6b51      	ldr	r1, [r2, #52]	; 0x34
 80008f4:	4301      	orrs	r1, r0
 80008f6:	6351      	str	r1, [r2, #52]	; 0x34
 80008f8:	6b53      	ldr	r3, [r2, #52]	; 0x34
 80008fa:	a901      	add	r1, sp, #4
 80008fc:	4003      	ands	r3, r0
 80008fe:	9300      	str	r3, [sp, #0]
 8000900:	9b00      	ldr	r3, [sp, #0]
 8000902:	20a0      	movs	r0, #160	; 0xa0
 8000904:	2320      	movs	r3, #32
 8000906:	05c0      	lsls	r0, r0, #23
 8000908:	9301      	str	r3, [sp, #4]
 800090a:	3b1b      	subs	r3, #27
 800090c:	9305      	str	r3, [sp, #20]
 800090e:	9402      	str	r4, [sp, #8]
 8000910:	f000 fe8e 	bl	8001630 <HAL_GPIO_Init>
 8000914:	2380      	movs	r3, #128	; 0x80
 8000916:	20a0      	movs	r0, #160	; 0xa0
 8000918:	9301      	str	r3, [sp, #4]
 800091a:	2300      	movs	r3, #0
 800091c:	a901      	add	r1, sp, #4
 800091e:	05c0      	lsls	r0, r0, #23
 8000920:	9402      	str	r4, [sp, #8]
 8000922:	9303      	str	r3, [sp, #12]
 8000924:	9304      	str	r3, [sp, #16]
 8000926:	9405      	str	r4, [sp, #20]
 8000928:	f000 fe82 	bl	8001630 <HAL_GPIO_Init>
 800092c:	b006      	add	sp, #24
 800092e:	bd10      	pop	{r4, pc}
 8000930:	40012c00 	.word	0x40012c00
 8000934:	40021000 	.word	0x40021000

08000938 <HAL_UART_MspInit>:
 8000938:	b5f0      	push	{r4, r5, r6, r7, lr}
 800093a:	0005      	movs	r5, r0
 800093c:	b093      	sub	sp, #76	; 0x4c
 800093e:	2214      	movs	r2, #20
 8000940:	2100      	movs	r1, #0
 8000942:	a806      	add	r0, sp, #24
 8000944:	f002 fafa 	bl	8002f3c <memset>
 8000948:	221c      	movs	r2, #28
 800094a:	2100      	movs	r1, #0
 800094c:	a80b      	add	r0, sp, #44	; 0x2c
 800094e:	f002 faf5 	bl	8002f3c <memset>
 8000952:	682b      	ldr	r3, [r5, #0]
 8000954:	4a46      	ldr	r2, [pc, #280]	; (8000a70 <HAL_UART_MspInit+0x138>)
 8000956:	4293      	cmp	r3, r2
 8000958:	d151      	bne.n	80009fe <HAL_UART_MspInit+0xc6>
 800095a:	2301      	movs	r3, #1
 800095c:	a80b      	add	r0, sp, #44	; 0x2c
 800095e:	930b      	str	r3, [sp, #44]	; 0x2c
 8000960:	f001 f94e 	bl	8001c00 <HAL_RCCEx_PeriphCLKConfig>
 8000964:	2800      	cmp	r0, #0
 8000966:	d001      	beq.n	800096c <HAL_UART_MspInit+0x34>
 8000968:	f7ff ff44 	bl	80007f4 <Error_Handler>
 800096c:	2080      	movs	r0, #128	; 0x80
 800096e:	2602      	movs	r6, #2
 8000970:	2701      	movs	r7, #1
 8000972:	4b40      	ldr	r3, [pc, #256]	; (8000a74 <HAL_UART_MspInit+0x13c>)
 8000974:	01c0      	lsls	r0, r0, #7
 8000976:	6c19      	ldr	r1, [r3, #64]	; 0x40
 8000978:	2400      	movs	r4, #0
 800097a:	4301      	orrs	r1, r0
 800097c:	6419      	str	r1, [r3, #64]	; 0x40
 800097e:	6c1a      	ldr	r2, [r3, #64]	; 0x40
 8000980:	a906      	add	r1, sp, #24
 8000982:	4002      	ands	r2, r0
 8000984:	9201      	str	r2, [sp, #4]
 8000986:	9a01      	ldr	r2, [sp, #4]
 8000988:	6b5a      	ldr	r2, [r3, #52]	; 0x34
 800098a:	483b      	ldr	r0, [pc, #236]	; (8000a78 <HAL_UART_MspInit+0x140>)
 800098c:	4332      	orrs	r2, r6
 800098e:	635a      	str	r2, [r3, #52]	; 0x34
 8000990:	6b5a      	ldr	r2, [r3, #52]	; 0x34
 8000992:	4032      	ands	r2, r6
 8000994:	9202      	str	r2, [sp, #8]
 8000996:	9a02      	ldr	r2, [sp, #8]
 8000998:	6b5a      	ldr	r2, [r3, #52]	; 0x34
 800099a:	433a      	orrs	r2, r7
 800099c:	635a      	str	r2, [r3, #52]	; 0x34
 800099e:	6b5b      	ldr	r3, [r3, #52]	; 0x34
 80009a0:	9607      	str	r6, [sp, #28]
 80009a2:	403b      	ands	r3, r7
 80009a4:	9303      	str	r3, [sp, #12]
 80009a6:	9b03      	ldr	r3, [sp, #12]
 80009a8:	2380      	movs	r3, #128	; 0x80
 80009aa:	9408      	str	r4, [sp, #32]
 80009ac:	9306      	str	r3, [sp, #24]
 80009ae:	9409      	str	r4, [sp, #36]	; 0x24
 80009b0:	940a      	str	r4, [sp, #40]	; 0x28
 80009b2:	f000 fe3d 	bl	8001630 <HAL_GPIO_Init>
 80009b6:	20a0      	movs	r0, #160	; 0xa0
 80009b8:	2304      	movs	r3, #4
 80009ba:	05c0      	lsls	r0, r0, #23
 80009bc:	a906      	add	r1, sp, #24
 80009be:	9607      	str	r6, [sp, #28]
 80009c0:	930a      	str	r3, [sp, #40]	; 0x28
 80009c2:	9706      	str	r7, [sp, #24]
 80009c4:	9408      	str	r4, [sp, #32]
 80009c6:	9409      	str	r4, [sp, #36]	; 0x24
 80009c8:	f000 fe32 	bl	8001630 <HAL_GPIO_Init>
 80009cc:	4e2b      	ldr	r6, [pc, #172]	; (8000a7c <HAL_UART_MspInit+0x144>)
 80009ce:	4b2c      	ldr	r3, [pc, #176]	; (8000a80 <HAL_UART_MspInit+0x148>)
 80009d0:	0030      	movs	r0, r6
 80009d2:	6033      	str	r3, [r6, #0]
 80009d4:	2332      	movs	r3, #50	; 0x32
 80009d6:	6073      	str	r3, [r6, #4]
 80009d8:	334e      	adds	r3, #78	; 0x4e
 80009da:	6133      	str	r3, [r6, #16]
 80009dc:	3b60      	subs	r3, #96	; 0x60
 80009de:	60b4      	str	r4, [r6, #8]
 80009e0:	60f4      	str	r4, [r6, #12]
 80009e2:	6174      	str	r4, [r6, #20]
 80009e4:	61b4      	str	r4, [r6, #24]
 80009e6:	61f3      	str	r3, [r6, #28]
 80009e8:	6234      	str	r4, [r6, #32]
 80009ea:	f000 fd29 	bl	8001440 <HAL_DMA_Init>
 80009ee:	42a0      	cmp	r0, r4
 80009f0:	d001      	beq.n	80009f6 <HAL_UART_MspInit+0xbe>
 80009f2:	f7ff feff 	bl	80007f4 <Error_Handler>
 80009f6:	67ee      	str	r6, [r5, #124]	; 0x7c
 80009f8:	62b5      	str	r5, [r6, #40]	; 0x28
 80009fa:	b013      	add	sp, #76	; 0x4c
 80009fc:	bdf0      	pop	{r4, r5, r6, r7, pc}
 80009fe:	4a21      	ldr	r2, [pc, #132]	; (8000a84 <HAL_UART_MspInit+0x14c>)
 8000a00:	4293      	cmp	r3, r2
 8000a02:	d1fa      	bne.n	80009fa <HAL_UART_MspInit+0xc2>
 8000a04:	2080      	movs	r0, #128	; 0x80
 8000a06:	4b1b      	ldr	r3, [pc, #108]	; (8000a74 <HAL_UART_MspInit+0x13c>)
 8000a08:	0280      	lsls	r0, r0, #10
 8000a0a:	6bd9      	ldr	r1, [r3, #60]	; 0x3c
 8000a0c:	4301      	orrs	r1, r0
 8000a0e:	63d9      	str	r1, [r3, #60]	; 0x3c
 8000a10:	6bda      	ldr	r2, [r3, #60]	; 0x3c
 8000a12:	4002      	ands	r2, r0
 8000a14:	9204      	str	r2, [sp, #16]
 8000a16:	9a04      	ldr	r2, [sp, #16]
 8000a18:	2201      	movs	r2, #1
 8000a1a:	6b59      	ldr	r1, [r3, #52]	; 0x34
 8000a1c:	20a0      	movs	r0, #160	; 0xa0
 8000a1e:	4311      	orrs	r1, r2
 8000a20:	6359      	str	r1, [r3, #52]	; 0x34
 8000a22:	6b5b      	ldr	r3, [r3, #52]	; 0x34
 8000a24:	05c0      	lsls	r0, r0, #23
 8000a26:	4013      	ands	r3, r2
 8000a28:	9305      	str	r3, [sp, #20]
 8000a2a:	9b05      	ldr	r3, [sp, #20]
 8000a2c:	230c      	movs	r3, #12
 8000a2e:	a906      	add	r1, sp, #24
 8000a30:	9306      	str	r3, [sp, #24]
 8000a32:	3b0a      	subs	r3, #10
 8000a34:	9307      	str	r3, [sp, #28]
 8000a36:	920a      	str	r2, [sp, #40]	; 0x28
 8000a38:	f000 fdfa 	bl	8001630 <HAL_GPIO_Init>
 8000a3c:	4c12      	ldr	r4, [pc, #72]	; (8000a88 <HAL_UART_MspInit+0x150>)
 8000a3e:	4b13      	ldr	r3, [pc, #76]	; (8000a8c <HAL_UART_MspInit+0x154>)
 8000a40:	2280      	movs	r2, #128	; 0x80
 8000a42:	6023      	str	r3, [r4, #0]
 8000a44:	2334      	movs	r3, #52	; 0x34
 8000a46:	6063      	str	r3, [r4, #4]
 8000a48:	2300      	movs	r3, #0
 8000a4a:	6122      	str	r2, [r4, #16]
 8000a4c:	0020      	movs	r0, r4
 8000a4e:	3a60      	subs	r2, #96	; 0x60
 8000a50:	60a3      	str	r3, [r4, #8]
 8000a52:	60e3      	str	r3, [r4, #12]
 8000a54:	6163      	str	r3, [r4, #20]
 8000a56:	61a3      	str	r3, [r4, #24]
 8000a58:	61e2      	str	r2, [r4, #28]
 8000a5a:	6223      	str	r3, [r4, #32]
 8000a5c:	f000 fcf0 	bl	8001440 <HAL_DMA_Init>
 8000a60:	2800      	cmp	r0, #0
 8000a62:	d001      	beq.n	8000a68 <HAL_UART_MspInit+0x130>
 8000a64:	f7ff fec6 	bl	80007f4 <Error_Handler>
 8000a68:	67ec      	str	r4, [r5, #124]	; 0x7c
 8000a6a:	62a5      	str	r5, [r4, #40]	; 0x28
 8000a6c:	e7c5      	b.n	80009fa <HAL_UART_MspInit+0xc2>
 8000a6e:	46c0      	nop			; (mov r8, r8)
 8000a70:	40013800 	.word	0x40013800
 8000a74:	40021000 	.word	0x40021000
 8000a78:	50000400 	.word	0x50000400
 8000a7c:	2000008c 	.word	0x2000008c
 8000a80:	40020008 	.word	0x40020008
 8000a84:	40004400 	.word	0x40004400
 8000a88:	200000e8 	.word	0x200000e8
 8000a8c:	4002001c 	.word	0x4002001c

08000a90 <NMI_Handler>:
 8000a90:	e7fe      	b.n	8000a90 <NMI_Handler>

08000a92 <HardFault_Handler>:
 8000a92:	e7fe      	b.n	8000a92 <HardFault_Handler>

08000a94 <SVC_Handler>:
 8000a94:	4770      	bx	lr

08000a96 <PendSV_Handler>:
 8000a96:	4770      	bx	lr

08000a98 <SysTick_Handler>:
 8000a98:	b510      	push	{r4, lr}
 8000a9a:	f000 f877 	bl	8000b8c <HAL_IncTick>
 8000a9e:	bd10      	pop	{r4, pc}

08000aa0 <DMA1_Channel1_IRQHandler>:
 8000aa0:	b510      	push	{r4, lr}
 8000aa2:	4802      	ldr	r0, [pc, #8]	; (8000aac <DMA1_Channel1_IRQHandler+0xc>)
 8000aa4:	f000 fd70 	bl	8001588 <HAL_DMA_IRQHandler>
 8000aa8:	bd10      	pop	{r4, pc}
 8000aaa:	46c0      	nop			; (mov r8, r8)
 8000aac:	2000008c 	.word	0x2000008c

08000ab0 <DMA1_Channel2_3_IRQHandler>:
 8000ab0:	b510      	push	{r4, lr}
 8000ab2:	4802      	ldr	r0, [pc, #8]	; (8000abc <DMA1_Channel2_3_IRQHandler+0xc>)
 8000ab4:	f000 fd68 	bl	8001588 <HAL_DMA_IRQHandler>
 8000ab8:	bd10      	pop	{r4, pc}
 8000aba:	46c0      	nop			; (mov r8, r8)
 8000abc:	200000e8 	.word	0x200000e8

08000ac0 <SystemInit>:
 8000ac0:	2280      	movs	r2, #128	; 0x80
 8000ac2:	4b02      	ldr	r3, [pc, #8]	; (8000acc <SystemInit+0xc>)
 8000ac4:	0512      	lsls	r2, r2, #20
 8000ac6:	609a      	str	r2, [r3, #8]
 8000ac8:	4770      	bx	lr
 8000aca:	46c0      	nop			; (mov r8, r8)
 8000acc:	e000ed00 	.word	0xe000ed00

08000ad0 <Reset_Handler>:
 8000ad0:	480d      	ldr	r0, [pc, #52]	; (8000b08 <LoopForever+0x2>)
 8000ad2:	4685      	mov	sp, r0
 8000ad4:	2100      	movs	r1, #0
 8000ad6:	e003      	b.n	8000ae0 <LoopCopyDataInit>

08000ad8 <CopyDataInit>:
 8000ad8:	4b0c      	ldr	r3, [pc, #48]	; (8000b0c <LoopForever+0x6>)
 8000ada:	585b      	ldr	r3, [r3, r1]
 8000adc:	5043      	str	r3, [r0, r1]
 8000ade:	3104      	adds	r1, #4

08000ae0 <LoopCopyDataInit>:
 8000ae0:	480b      	ldr	r0, [pc, #44]	; (8000b10 <LoopForever+0xa>)
 8000ae2:	4b0c      	ldr	r3, [pc, #48]	; (8000b14 <LoopForever+0xe>)
 8000ae4:	1842      	adds	r2, r0, r1
 8000ae6:	429a      	cmp	r2, r3
 8000ae8:	d3f6      	bcc.n	8000ad8 <CopyDataInit>
 8000aea:	4a0b      	ldr	r2, [pc, #44]	; (8000b18 <LoopForever+0x12>)
 8000aec:	e002      	b.n	8000af4 <LoopFillZerobss>

08000aee <FillZerobss>:
 8000aee:	2300      	movs	r3, #0
 8000af0:	6013      	str	r3, [r2, #0]
 8000af2:	3204      	adds	r2, #4

08000af4 <LoopFillZerobss>:
 8000af4:	4b09      	ldr	r3, [pc, #36]	; (8000b1c <LoopForever+0x16>)
 8000af6:	429a      	cmp	r2, r3
 8000af8:	d3f9      	bcc.n	8000aee <FillZerobss>
 8000afa:	f7ff ffe1 	bl	8000ac0 <SystemInit>
 8000afe:	f002 f9f9 	bl	8002ef4 <__libc_init_array>
 8000b02:	f7ff fcc7 	bl	8000494 <main>

08000b06 <LoopForever>:
 8000b06:	e7fe      	b.n	8000b06 <LoopForever>
 8000b08:	20001800 	.word	0x20001800
 8000b0c:	08002ff8 	.word	0x08002ff8
 8000b10:	20000000 	.word	0x20000000
 8000b14:	2000000c 	.word	0x2000000c
 8000b18:	2000000c 	.word	0x2000000c
 8000b1c:	200003b4 	.word	0x200003b4

08000b20 <ADC1_IRQHandler>:
 8000b20:	e7fe      	b.n	8000b20 <ADC1_IRQHandler>
	...

08000b24 <HAL_InitTick>:
 8000b24:	4b10      	ldr	r3, [pc, #64]	; (8000b68 <HAL_InitTick+0x44>)
 8000b26:	b570      	push	{r4, r5, r6, lr}
 8000b28:	6819      	ldr	r1, [r3, #0]
 8000b2a:	0005      	movs	r5, r0
 8000b2c:	2900      	cmp	r1, #0
 8000b2e:	d101      	bne.n	8000b34 <HAL_InitTick+0x10>
 8000b30:	2001      	movs	r0, #1
 8000b32:	bd70      	pop	{r4, r5, r6, pc}
 8000b34:	20fa      	movs	r0, #250	; 0xfa
 8000b36:	0080      	lsls	r0, r0, #2
 8000b38:	f7ff fafa 	bl	8000130 <__udivsi3>
 8000b3c:	4b0b      	ldr	r3, [pc, #44]	; (8000b6c <HAL_InitTick+0x48>)
 8000b3e:	0001      	movs	r1, r0
 8000b40:	6818      	ldr	r0, [r3, #0]
 8000b42:	f7ff faf5 	bl	8000130 <__udivsi3>
 8000b46:	f000 fc27 	bl	8001398 <HAL_SYSTICK_Config>
 8000b4a:	1e04      	subs	r4, r0, #0
 8000b4c:	d1f0      	bne.n	8000b30 <HAL_InitTick+0xc>
 8000b4e:	2d03      	cmp	r5, #3
 8000b50:	d8ee      	bhi.n	8000b30 <HAL_InitTick+0xc>
 8000b52:	0002      	movs	r2, r0
 8000b54:	2001      	movs	r0, #1
 8000b56:	0029      	movs	r1, r5
 8000b58:	4240      	negs	r0, r0
 8000b5a:	f000 fbe7 	bl	800132c <HAL_NVIC_SetPriority>
 8000b5e:	4b04      	ldr	r3, [pc, #16]	; (8000b70 <HAL_InitTick+0x4c>)
 8000b60:	0020      	movs	r0, r4
 8000b62:	601d      	str	r5, [r3, #0]
 8000b64:	e7e5      	b.n	8000b32 <HAL_InitTick+0xe>
 8000b66:	46c0      	nop			; (mov r8, r8)
 8000b68:	20000004 	.word	0x20000004
 8000b6c:	20000000 	.word	0x20000000
 8000b70:	20000008 	.word	0x20000008

08000b74 <HAL_Init>:
 8000b74:	b510      	push	{r4, lr}
 8000b76:	2003      	movs	r0, #3
 8000b78:	f7ff ffd4 	bl	8000b24 <HAL_InitTick>
 8000b7c:	1e04      	subs	r4, r0, #0
 8000b7e:	d103      	bne.n	8000b88 <HAL_Init+0x14>
 8000b80:	f7ff fe3a 	bl	80007f8 <HAL_MspInit>
 8000b84:	0020      	movs	r0, r4
 8000b86:	bd10      	pop	{r4, pc}
 8000b88:	2401      	movs	r4, #1
 8000b8a:	e7fb      	b.n	8000b84 <HAL_Init+0x10>

08000b8c <HAL_IncTick>:
 8000b8c:	4a03      	ldr	r2, [pc, #12]	; (8000b9c <HAL_IncTick+0x10>)
 8000b8e:	4904      	ldr	r1, [pc, #16]	; (8000ba0 <HAL_IncTick+0x14>)
 8000b90:	6813      	ldr	r3, [r2, #0]
 8000b92:	6809      	ldr	r1, [r1, #0]
 8000b94:	185b      	adds	r3, r3, r1
 8000b96:	6013      	str	r3, [r2, #0]
 8000b98:	4770      	bx	lr
 8000b9a:	46c0      	nop			; (mov r8, r8)
 8000b9c:	200003b0 	.word	0x200003b0
 8000ba0:	20000004 	.word	0x20000004

08000ba4 <HAL_GetTick>:
 8000ba4:	4b01      	ldr	r3, [pc, #4]	; (8000bac <HAL_GetTick+0x8>)
 8000ba6:	6818      	ldr	r0, [r3, #0]
 8000ba8:	4770      	bx	lr
 8000baa:	46c0      	nop			; (mov r8, r8)
 8000bac:	200003b0 	.word	0x200003b0

08000bb0 <HAL_Delay>:
 8000bb0:	b570      	push	{r4, r5, r6, lr}
 8000bb2:	0004      	movs	r4, r0
 8000bb4:	f7ff fff6 	bl	8000ba4 <HAL_GetTick>
 8000bb8:	0005      	movs	r5, r0
 8000bba:	1c63      	adds	r3, r4, #1
 8000bbc:	d002      	beq.n	8000bc4 <HAL_Delay+0x14>
 8000bbe:	4b04      	ldr	r3, [pc, #16]	; (8000bd0 <HAL_Delay+0x20>)
 8000bc0:	681b      	ldr	r3, [r3, #0]
 8000bc2:	18e4      	adds	r4, r4, r3
 8000bc4:	f7ff ffee 	bl	8000ba4 <HAL_GetTick>
 8000bc8:	1b40      	subs	r0, r0, r5
 8000bca:	42a0      	cmp	r0, r4
 8000bcc:	d3fa      	bcc.n	8000bc4 <HAL_Delay+0x14>
 8000bce:	bd70      	pop	{r4, r5, r6, pc}
 8000bd0:	20000004 	.word	0x20000004

08000bd4 <LL_ADC_REG_IsConversionOngoing>:
 8000bd4:	6880      	ldr	r0, [r0, #8]
 8000bd6:	0740      	lsls	r0, r0, #29
 8000bd8:	0fc0      	lsrs	r0, r0, #31
 8000bda:	4770      	bx	lr

08000bdc <HAL_ADC_Init>:
 8000bdc:	2300      	movs	r3, #0
 8000bde:	b5f0      	push	{r4, r5, r6, r7, lr}
 8000be0:	b085      	sub	sp, #20
 8000be2:	0004      	movs	r4, r0
 8000be4:	2501      	movs	r5, #1
 8000be6:	9303      	str	r3, [sp, #12]
 8000be8:	4298      	cmp	r0, r3
 8000bea:	d100      	bne.n	8000bee <HAL_ADC_Init+0x12>
 8000bec:	e0b9      	b.n	8000d62 <HAL_ADC_Init+0x186>
 8000bee:	6d85      	ldr	r5, [r0, #88]	; 0x58
 8000bf0:	429d      	cmp	r5, r3
 8000bf2:	d105      	bne.n	8000c00 <HAL_ADC_Init+0x24>
 8000bf4:	f7ff fe18 	bl	8000828 <HAL_ADC_MspInit>
 8000bf8:	0023      	movs	r3, r4
 8000bfa:	3354      	adds	r3, #84	; 0x54
 8000bfc:	65e5      	str	r5, [r4, #92]	; 0x5c
 8000bfe:	701d      	strb	r5, [r3, #0]
 8000c00:	2380      	movs	r3, #128	; 0x80
 8000c02:	6826      	ldr	r6, [r4, #0]
 8000c04:	055b      	lsls	r3, r3, #21
 8000c06:	68b2      	ldr	r2, [r6, #8]
 8000c08:	421a      	tst	r2, r3
 8000c0a:	d100      	bne.n	8000c0e <HAL_ADC_Init+0x32>
 8000c0c:	e0ac      	b.n	8000d68 <HAL_ADC_Init+0x18c>
 8000c0e:	68b3      	ldr	r3, [r6, #8]
 8000c10:	2500      	movs	r5, #0
 8000c12:	00db      	lsls	r3, r3, #3
 8000c14:	d407      	bmi.n	8000c26 <HAL_ADC_Init+0x4a>
 8000c16:	2310      	movs	r3, #16
 8000c18:	2501      	movs	r5, #1
 8000c1a:	6da2      	ldr	r2, [r4, #88]	; 0x58
 8000c1c:	4313      	orrs	r3, r2
 8000c1e:	65a3      	str	r3, [r4, #88]	; 0x58
 8000c20:	6de3      	ldr	r3, [r4, #92]	; 0x5c
 8000c22:	432b      	orrs	r3, r5
 8000c24:	65e3      	str	r3, [r4, #92]	; 0x5c
 8000c26:	0030      	movs	r0, r6
 8000c28:	f7ff ffd4 	bl	8000bd4 <LL_ADC_REG_IsConversionOngoing>
 8000c2c:	2310      	movs	r3, #16
 8000c2e:	6da2      	ldr	r2, [r4, #88]	; 0x58
 8000c30:	401a      	ands	r2, r3
 8000c32:	4310      	orrs	r0, r2
 8000c34:	9000      	str	r0, [sp, #0]
 8000c36:	d000      	beq.n	8000c3a <HAL_ADC_Init+0x5e>
 8000c38:	e0e5      	b.n	8000e06 <HAL_ADC_Init+0x22a>
 8000c3a:	6da3      	ldr	r3, [r4, #88]	; 0x58
 8000c3c:	4a74      	ldr	r2, [pc, #464]	; (8000e10 <HAL_ADC_Init+0x234>)
 8000c3e:	401a      	ands	r2, r3
 8000c40:	2302      	movs	r3, #2
 8000c42:	4313      	orrs	r3, r2
 8000c44:	65a3      	str	r3, [r4, #88]	; 0x58
 8000c46:	6823      	ldr	r3, [r4, #0]
 8000c48:	689a      	ldr	r2, [r3, #8]
 8000c4a:	07d2      	lsls	r2, r2, #31
 8000c4c:	d467      	bmi.n	8000d1e <HAL_ADC_Init+0x142>
 8000c4e:	7ea1      	ldrb	r1, [r4, #26]
 8000c50:	7e27      	ldrb	r7, [r4, #24]
 8000c52:	468c      	mov	ip, r1
 8000c54:	0349      	lsls	r1, r1, #13
 8000c56:	7e66      	ldrb	r6, [r4, #25]
 8000c58:	9101      	str	r1, [sp, #4]
 8000c5a:	6b21      	ldr	r1, [r4, #48]	; 0x30
 8000c5c:	68a2      	ldr	r2, [r4, #8]
 8000c5e:	03bf      	lsls	r7, r7, #14
 8000c60:	03f6      	lsls	r6, r6, #15
 8000c62:	2900      	cmp	r1, #0
 8000c64:	d001      	beq.n	8000c6a <HAL_ADC_Init+0x8e>
 8000c66:	2180      	movs	r1, #128	; 0x80
 8000c68:	0149      	lsls	r1, r1, #5
 8000c6a:	68e0      	ldr	r0, [r4, #12]
 8000c6c:	4302      	orrs	r2, r0
 8000c6e:	433a      	orrs	r2, r7
 8000c70:	9801      	ldr	r0, [sp, #4]
 8000c72:	6927      	ldr	r7, [r4, #16]
 8000c74:	4332      	orrs	r2, r6
 8000c76:	4302      	orrs	r2, r0
 8000c78:	2f00      	cmp	r7, #0
 8000c7a:	db00      	blt.n	8000c7e <HAL_ADC_Init+0xa2>
 8000c7c:	e088      	b.n	8000d90 <HAL_ADC_Init+0x1b4>
 8000c7e:	007f      	lsls	r7, r7, #1
 8000c80:	087f      	lsrs	r7, r7, #1
 8000c82:	0026      	movs	r6, r4
 8000c84:	362c      	adds	r6, #44	; 0x2c
 8000c86:	7836      	ldrb	r6, [r6, #0]
 8000c88:	0076      	lsls	r6, r6, #1
 8000c8a:	4316      	orrs	r6, r2
 8000c8c:	1c62      	adds	r2, r4, #1
 8000c8e:	7fd2      	ldrb	r2, [r2, #31]
 8000c90:	4331      	orrs	r1, r6
 8000c92:	4339      	orrs	r1, r7
 8000c94:	2a01      	cmp	r2, #1
 8000c96:	d106      	bne.n	8000ca6 <HAL_ADC_Init+0xca>
 8000c98:	4660      	mov	r0, ip
 8000c9a:	2800      	cmp	r0, #0
 8000c9c:	d000      	beq.n	8000ca0 <HAL_ADC_Init+0xc4>
 8000c9e:	e07a      	b.n	8000d96 <HAL_ADC_Init+0x1ba>
 8000ca0:	2280      	movs	r2, #128	; 0x80
 8000ca2:	0252      	lsls	r2, r2, #9
 8000ca4:	4311      	orrs	r1, r2
 8000ca6:	6a62      	ldr	r2, [r4, #36]	; 0x24
 8000ca8:	2a00      	cmp	r2, #0
 8000caa:	d005      	beq.n	8000cb8 <HAL_ADC_Init+0xdc>
 8000cac:	26e0      	movs	r6, #224	; 0xe0
 8000cae:	6aa0      	ldr	r0, [r4, #40]	; 0x28
 8000cb0:	0076      	lsls	r6, r6, #1
 8000cb2:	4032      	ands	r2, r6
 8000cb4:	4302      	orrs	r2, r0
 8000cb6:	4311      	orrs	r1, r2
 8000cb8:	68de      	ldr	r6, [r3, #12]
 8000cba:	4a56      	ldr	r2, [pc, #344]	; (8000e14 <HAL_ADC_Init+0x238>)
 8000cbc:	4016      	ands	r6, r2
 8000cbe:	4331      	orrs	r1, r6
 8000cc0:	60d9      	str	r1, [r3, #12]
 8000cc2:	6861      	ldr	r1, [r4, #4]
 8000cc4:	6ce2      	ldr	r2, [r4, #76]	; 0x4c
 8000cc6:	0f8f      	lsrs	r7, r1, #30
 8000cc8:	07bf      	lsls	r7, r7, #30
 8000cca:	433a      	orrs	r2, r7
 8000ccc:	4694      	mov	ip, r2
 8000cce:	0022      	movs	r2, r4
 8000cd0:	323c      	adds	r2, #60	; 0x3c
 8000cd2:	7816      	ldrb	r6, [r2, #0]
 8000cd4:	2e01      	cmp	r6, #1
 8000cd6:	d109      	bne.n	8000cec <HAL_ADC_Init+0x110>
 8000cd8:	6c60      	ldr	r0, [r4, #68]	; 0x44
 8000cda:	6c22      	ldr	r2, [r4, #64]	; 0x40
 8000cdc:	4302      	orrs	r2, r0
 8000cde:	4660      	mov	r0, ip
 8000ce0:	4302      	orrs	r2, r0
 8000ce2:	6ca0      	ldr	r0, [r4, #72]	; 0x48
 8000ce4:	4302      	orrs	r2, r0
 8000ce6:	433a      	orrs	r2, r7
 8000ce8:	4316      	orrs	r6, r2
 8000cea:	46b4      	mov	ip, r6
 8000cec:	691a      	ldr	r2, [r3, #16]
 8000cee:	4e4a      	ldr	r6, [pc, #296]	; (8000e18 <HAL_ADC_Init+0x23c>)
 8000cf0:	4660      	mov	r0, ip
 8000cf2:	4032      	ands	r2, r6
 8000cf4:	2680      	movs	r6, #128	; 0x80
 8000cf6:	4302      	orrs	r2, r0
 8000cf8:	611a      	str	r2, [r3, #16]
 8000cfa:	004a      	lsls	r2, r1, #1
 8000cfc:	0852      	lsrs	r2, r2, #1
 8000cfe:	05f6      	lsls	r6, r6, #23
 8000d00:	42b2      	cmp	r2, r6
 8000d02:	d00c      	beq.n	8000d1e <HAL_ADC_Init+0x142>
 8000d04:	2280      	movs	r2, #128	; 0x80
 8000d06:	0612      	lsls	r2, r2, #24
 8000d08:	4291      	cmp	r1, r2
 8000d0a:	d008      	beq.n	8000d1e <HAL_ADC_Init+0x142>
 8000d0c:	4e43      	ldr	r6, [pc, #268]	; (8000e1c <HAL_ADC_Init+0x240>)
 8000d0e:	4f44      	ldr	r7, [pc, #272]	; (8000e20 <HAL_ADC_Init+0x244>)
 8000d10:	6832      	ldr	r2, [r6, #0]
 8000d12:	403a      	ands	r2, r7
 8000d14:	27f0      	movs	r7, #240	; 0xf0
 8000d16:	03bf      	lsls	r7, r7, #14
 8000d18:	4039      	ands	r1, r7
 8000d1a:	4311      	orrs	r1, r2
 8000d1c:	6031      	str	r1, [r6, #0]
 8000d1e:	2607      	movs	r6, #7
 8000d20:	2770      	movs	r7, #112	; 0x70
 8000d22:	695a      	ldr	r2, [r3, #20]
 8000d24:	6b61      	ldr	r1, [r4, #52]	; 0x34
 8000d26:	43b2      	bics	r2, r6
 8000d28:	430a      	orrs	r2, r1
 8000d2a:	615a      	str	r2, [r3, #20]
 8000d2c:	695e      	ldr	r6, [r3, #20]
 8000d2e:	6ba2      	ldr	r2, [r4, #56]	; 0x38
 8000d30:	43be      	bics	r6, r7
 8000d32:	0112      	lsls	r2, r2, #4
 8000d34:	4332      	orrs	r2, r6
 8000d36:	615a      	str	r2, [r3, #20]
 8000d38:	6922      	ldr	r2, [r4, #16]
 8000d3a:	2a00      	cmp	r2, #0
 8000d3c:	d133      	bne.n	8000da6 <HAL_ADC_Init+0x1ca>
 8000d3e:	6a98      	ldr	r0, [r3, #40]	; 0x28
 8000d40:	3a10      	subs	r2, #16
 8000d42:	4302      	orrs	r2, r0
 8000d44:	629a      	str	r2, [r3, #40]	; 0x28
 8000d46:	2207      	movs	r2, #7
 8000d48:	695b      	ldr	r3, [r3, #20]
 8000d4a:	4013      	ands	r3, r2
 8000d4c:	4299      	cmp	r1, r3
 8000d4e:	d14e      	bne.n	8000dee <HAL_ADC_Init+0x212>
 8000d50:	2300      	movs	r3, #0
 8000d52:	65e3      	str	r3, [r4, #92]	; 0x5c
 8000d54:	6da3      	ldr	r3, [r4, #88]	; 0x58
 8000d56:	3a04      	subs	r2, #4
 8000d58:	4393      	bics	r3, r2
 8000d5a:	001a      	movs	r2, r3
 8000d5c:	2301      	movs	r3, #1
 8000d5e:	4313      	orrs	r3, r2
 8000d60:	65a3      	str	r3, [r4, #88]	; 0x58
 8000d62:	0028      	movs	r0, r5
 8000d64:	b005      	add	sp, #20
 8000d66:	bdf0      	pop	{r4, r5, r6, r7, pc}
 8000d68:	68b2      	ldr	r2, [r6, #8]
 8000d6a:	492e      	ldr	r1, [pc, #184]	; (8000e24 <HAL_ADC_Init+0x248>)
 8000d6c:	400a      	ands	r2, r1
 8000d6e:	4313      	orrs	r3, r2
 8000d70:	60b3      	str	r3, [r6, #8]
 8000d72:	4b2d      	ldr	r3, [pc, #180]	; (8000e28 <HAL_ADC_Init+0x24c>)
 8000d74:	492d      	ldr	r1, [pc, #180]	; (8000e2c <HAL_ADC_Init+0x250>)
 8000d76:	6818      	ldr	r0, [r3, #0]
 8000d78:	f7ff f9da 	bl	8000130 <__udivsi3>
 8000d7c:	0040      	lsls	r0, r0, #1
 8000d7e:	9003      	str	r0, [sp, #12]
 8000d80:	9b03      	ldr	r3, [sp, #12]
 8000d82:	2b00      	cmp	r3, #0
 8000d84:	d100      	bne.n	8000d88 <HAL_ADC_Init+0x1ac>
 8000d86:	e742      	b.n	8000c0e <HAL_ADC_Init+0x32>
 8000d88:	9b03      	ldr	r3, [sp, #12]
 8000d8a:	3b01      	subs	r3, #1
 8000d8c:	9303      	str	r3, [sp, #12]
 8000d8e:	e7f7      	b.n	8000d80 <HAL_ADC_Init+0x1a4>
 8000d90:	2780      	movs	r7, #128	; 0x80
 8000d92:	03bf      	lsls	r7, r7, #14
 8000d94:	e775      	b.n	8000c82 <HAL_ADC_Init+0xa6>
 8000d96:	2620      	movs	r6, #32
 8000d98:	6da7      	ldr	r7, [r4, #88]	; 0x58
 8000d9a:	433e      	orrs	r6, r7
 8000d9c:	65a6      	str	r6, [r4, #88]	; 0x58
 8000d9e:	6de6      	ldr	r6, [r4, #92]	; 0x5c
 8000da0:	4332      	orrs	r2, r6
 8000da2:	65e2      	str	r2, [r4, #92]	; 0x5c
 8000da4:	e77f      	b.n	8000ca6 <HAL_ADC_Init+0xca>
 8000da6:	2680      	movs	r6, #128	; 0x80
 8000da8:	03b6      	lsls	r6, r6, #14
 8000daa:	42b2      	cmp	r2, r6
 8000dac:	d1cb      	bne.n	8000d46 <HAL_ADC_Init+0x16a>
 8000dae:	270f      	movs	r7, #15
 8000db0:	6e26      	ldr	r6, [r4, #96]	; 0x60
 8000db2:	0030      	movs	r0, r6
 8000db4:	9a00      	ldr	r2, [sp, #0]
 8000db6:	0092      	lsls	r2, r2, #2
 8000db8:	40d0      	lsrs	r0, r2
 8000dba:	0002      	movs	r2, r0
 8000dbc:	403a      	ands	r2, r7
 8000dbe:	2a0f      	cmp	r2, #15
 8000dc0:	d00f      	beq.n	8000de2 <HAL_ADC_Init+0x206>
 8000dc2:	9a00      	ldr	r2, [sp, #0]
 8000dc4:	3201      	adds	r2, #1
 8000dc6:	9200      	str	r2, [sp, #0]
 8000dc8:	2a08      	cmp	r2, #8
 8000dca:	d1f2      	bne.n	8000db2 <HAL_ADC_Init+0x1d6>
 8000dcc:	201c      	movs	r0, #28
 8000dce:	6a9a      	ldr	r2, [r3, #40]	; 0x28
 8000dd0:	69e2      	ldr	r2, [r4, #28]
 8000dd2:	3a01      	subs	r2, #1
 8000dd4:	0092      	lsls	r2, r2, #2
 8000dd6:	4002      	ands	r2, r0
 8000dd8:	382c      	subs	r0, #44	; 0x2c
 8000dda:	4090      	lsls	r0, r2
 8000ddc:	0002      	movs	r2, r0
 8000dde:	4332      	orrs	r2, r6
 8000de0:	e7b0      	b.n	8000d44 <HAL_ADC_Init+0x168>
 8000de2:	9a00      	ldr	r2, [sp, #0]
 8000de4:	2a01      	cmp	r2, #1
 8000de6:	d1f1      	bne.n	8000dcc <HAL_ADC_Init+0x1f0>
 8000de8:	6a98      	ldr	r0, [r3, #40]	; 0x28
 8000dea:	3a11      	subs	r2, #17
 8000dec:	e7a9      	b.n	8000d42 <HAL_ADC_Init+0x166>
 8000dee:	2212      	movs	r2, #18
 8000df0:	6da3      	ldr	r3, [r4, #88]	; 0x58
 8000df2:	2501      	movs	r5, #1
 8000df4:	4393      	bics	r3, r2
 8000df6:	001a      	movs	r2, r3
 8000df8:	2310      	movs	r3, #16
 8000dfa:	4313      	orrs	r3, r2
 8000dfc:	65a3      	str	r3, [r4, #88]	; 0x58
 8000dfe:	6de3      	ldr	r3, [r4, #92]	; 0x5c
 8000e00:	432b      	orrs	r3, r5
 8000e02:	65e3      	str	r3, [r4, #92]	; 0x5c
 8000e04:	e7ad      	b.n	8000d62 <HAL_ADC_Init+0x186>
 8000e06:	6da2      	ldr	r2, [r4, #88]	; 0x58
 8000e08:	2501      	movs	r5, #1
 8000e0a:	4313      	orrs	r3, r2
 8000e0c:	65a3      	str	r3, [r4, #88]	; 0x58
 8000e0e:	e7a8      	b.n	8000d62 <HAL_ADC_Init+0x186>
 8000e10:	fffffefd 	.word	0xfffffefd
 8000e14:	fffe0201 	.word	0xfffe0201
 8000e18:	1ffffc02 	.word	0x1ffffc02
 8000e1c:	40012708 	.word	0x40012708
 8000e20:	ffc3ffff 	.word	0xffc3ffff
 8000e24:	6fffffe8 	.word	0x6fffffe8
 8000e28:	20000000 	.word	0x20000000
 8000e2c:	00030d40 	.word	0x00030d40

08000e30 <HAL_ADC_PollForConversion>:
 8000e30:	b5f8      	push	{r3, r4, r5, r6, r7, lr}
 8000e32:	6946      	ldr	r6, [r0, #20]
 8000e34:	0004      	movs	r4, r0
 8000e36:	000d      	movs	r5, r1
 8000e38:	2e08      	cmp	r6, #8
 8000e3a:	d00a      	beq.n	8000e52 <HAL_ADC_PollForConversion+0x22>
 8000e3c:	6803      	ldr	r3, [r0, #0]
 8000e3e:	2001      	movs	r0, #1
 8000e40:	68db      	ldr	r3, [r3, #12]
 8000e42:	2604      	movs	r6, #4
 8000e44:	4203      	tst	r3, r0
 8000e46:	d004      	beq.n	8000e52 <HAL_ADC_PollForConversion+0x22>
 8000e48:	2320      	movs	r3, #32
 8000e4a:	6da2      	ldr	r2, [r4, #88]	; 0x58
 8000e4c:	4313      	orrs	r3, r2
 8000e4e:	65a3      	str	r3, [r4, #88]	; 0x58
 8000e50:	bdf8      	pop	{r3, r4, r5, r6, r7, pc}
 8000e52:	f7ff fea7 	bl	8000ba4 <HAL_GetTick>
 8000e56:	0007      	movs	r7, r0
 8000e58:	6820      	ldr	r0, [r4, #0]
 8000e5a:	6803      	ldr	r3, [r0, #0]
 8000e5c:	421e      	tst	r6, r3
 8000e5e:	d025      	beq.n	8000eac <HAL_ADC_PollForConversion+0x7c>
 8000e60:	2380      	movs	r3, #128	; 0x80
 8000e62:	6da2      	ldr	r2, [r4, #88]	; 0x58
 8000e64:	009b      	lsls	r3, r3, #2
 8000e66:	4313      	orrs	r3, r2
 8000e68:	65a3      	str	r3, [r4, #88]	; 0x58
 8000e6a:	23c0      	movs	r3, #192	; 0xc0
 8000e6c:	68c2      	ldr	r2, [r0, #12]
 8000e6e:	011b      	lsls	r3, r3, #4
 8000e70:	421a      	tst	r2, r3
 8000e72:	d114      	bne.n	8000e9e <HAL_ADC_PollForConversion+0x6e>
 8000e74:	7ea3      	ldrb	r3, [r4, #26]
 8000e76:	2b00      	cmp	r3, #0
 8000e78:	d111      	bne.n	8000e9e <HAL_ADC_PollForConversion+0x6e>
 8000e7a:	6803      	ldr	r3, [r0, #0]
 8000e7c:	071b      	lsls	r3, r3, #28
 8000e7e:	d50e      	bpl.n	8000e9e <HAL_ADC_PollForConversion+0x6e>
 8000e80:	f7ff fea8 	bl	8000bd4 <LL_ADC_REG_IsConversionOngoing>
 8000e84:	2800      	cmp	r0, #0
 8000e86:	d123      	bne.n	8000ed0 <HAL_ADC_PollForConversion+0xa0>
 8000e88:	210c      	movs	r1, #12
 8000e8a:	6822      	ldr	r2, [r4, #0]
 8000e8c:	6853      	ldr	r3, [r2, #4]
 8000e8e:	438b      	bics	r3, r1
 8000e90:	6053      	str	r3, [r2, #4]
 8000e92:	6da3      	ldr	r3, [r4, #88]	; 0x58
 8000e94:	4a14      	ldr	r2, [pc, #80]	; (8000ee8 <HAL_ADC_PollForConversion+0xb8>)
 8000e96:	401a      	ands	r2, r3
 8000e98:	2301      	movs	r3, #1
 8000e9a:	4313      	orrs	r3, r2
 8000e9c:	65a3      	str	r3, [r4, #88]	; 0x58
 8000e9e:	7e20      	ldrb	r0, [r4, #24]
 8000ea0:	2800      	cmp	r0, #0
 8000ea2:	d11e      	bne.n	8000ee2 <HAL_ADC_PollForConversion+0xb2>
 8000ea4:	220c      	movs	r2, #12
 8000ea6:	6823      	ldr	r3, [r4, #0]
 8000ea8:	601a      	str	r2, [r3, #0]
 8000eaa:	e7d1      	b.n	8000e50 <HAL_ADC_PollForConversion+0x20>
 8000eac:	1c6b      	adds	r3, r5, #1
 8000eae:	d0d4      	beq.n	8000e5a <HAL_ADC_PollForConversion+0x2a>
 8000eb0:	f7ff fe78 	bl	8000ba4 <HAL_GetTick>
 8000eb4:	1bc0      	subs	r0, r0, r7
 8000eb6:	42a8      	cmp	r0, r5
 8000eb8:	d801      	bhi.n	8000ebe <HAL_ADC_PollForConversion+0x8e>
 8000eba:	2d00      	cmp	r5, #0
 8000ebc:	d1cc      	bne.n	8000e58 <HAL_ADC_PollForConversion+0x28>
 8000ebe:	2304      	movs	r3, #4
 8000ec0:	6da2      	ldr	r2, [r4, #88]	; 0x58
 8000ec2:	3454      	adds	r4, #84	; 0x54
 8000ec4:	4313      	orrs	r3, r2
 8000ec6:	6063      	str	r3, [r4, #4]
 8000ec8:	2300      	movs	r3, #0
 8000eca:	2003      	movs	r0, #3
 8000ecc:	7023      	strb	r3, [r4, #0]
 8000ece:	e7bf      	b.n	8000e50 <HAL_ADC_PollForConversion+0x20>
 8000ed0:	2320      	movs	r3, #32
 8000ed2:	6da2      	ldr	r2, [r4, #88]	; 0x58
 8000ed4:	4313      	orrs	r3, r2
 8000ed6:	65a3      	str	r3, [r4, #88]	; 0x58
 8000ed8:	2301      	movs	r3, #1
 8000eda:	6de2      	ldr	r2, [r4, #92]	; 0x5c
 8000edc:	4313      	orrs	r3, r2
 8000ede:	65e3      	str	r3, [r4, #92]	; 0x5c
 8000ee0:	e7dd      	b.n	8000e9e <HAL_ADC_PollForConversion+0x6e>
 8000ee2:	2000      	movs	r0, #0
 8000ee4:	e7b4      	b.n	8000e50 <HAL_ADC_PollForConversion+0x20>
 8000ee6:	46c0      	nop			; (mov r8, r8)
 8000ee8:	fffffefe 	.word	0xfffffefe

08000eec <HAL_ADC_GetValue>:
 8000eec:	6803      	ldr	r3, [r0, #0]
 8000eee:	6c18      	ldr	r0, [r3, #64]	; 0x40
 8000ef0:	4770      	bx	lr
	...

08000ef4 <HAL_ADC_ConfigChannel>:
 8000ef4:	2300      	movs	r3, #0
 8000ef6:	b5f0      	push	{r4, r5, r6, r7, lr}
 8000ef8:	b087      	sub	sp, #28
 8000efa:	9305      	str	r3, [sp, #20]
 8000efc:	0003      	movs	r3, r0
 8000efe:	3354      	adds	r3, #84	; 0x54
 8000f00:	781a      	ldrb	r2, [r3, #0]
 8000f02:	0004      	movs	r4, r0
 8000f04:	000e      	movs	r6, r1
 8000f06:	2002      	movs	r0, #2
 8000f08:	2a01      	cmp	r2, #1
 8000f0a:	d100      	bne.n	8000f0e <HAL_ADC_ConfigChannel+0x1a>
 8000f0c:	e0cf      	b.n	80010ae <HAL_ADC_ConfigChannel+0x1ba>
 8000f0e:	2501      	movs	r5, #1
 8000f10:	701d      	strb	r5, [r3, #0]
 8000f12:	6820      	ldr	r0, [r4, #0]
 8000f14:	f7ff fe5e 	bl	8000bd4 <LL_ADC_REG_IsConversionOngoing>
 8000f18:	2800      	cmp	r0, #0
 8000f1a:	d000      	beq.n	8000f1e <HAL_ADC_ConfigChannel+0x2a>
 8000f1c:	e0ec      	b.n	80010f8 <HAL_ADC_ConfigChannel+0x204>
 8000f1e:	2204      	movs	r2, #4
 8000f20:	6927      	ldr	r7, [r4, #16]
 8000f22:	6873      	ldr	r3, [r6, #4]
 8000f24:	4397      	bics	r7, r2
 8000f26:	2280      	movs	r2, #128	; 0x80
 8000f28:	9301      	str	r3, [sp, #4]
 8000f2a:	0612      	lsls	r2, r2, #24
 8000f2c:	4694      	mov	ip, r2
 8000f2e:	9a01      	ldr	r2, [sp, #4]
 8000f30:	6833      	ldr	r3, [r6, #0]
 8000f32:	2a02      	cmp	r2, #2
 8000f34:	d100      	bne.n	8000f38 <HAL_ADC_ConfigChannel+0x44>
 8000f36:	e0bc      	b.n	80010b2 <HAL_ADC_ConfigChannel+0x1be>
 8000f38:	0259      	lsls	r1, r3, #9
 8000f3a:	0a49      	lsrs	r1, r1, #9
 8000f3c:	6822      	ldr	r2, [r4, #0]
 8000f3e:	9102      	str	r1, [sp, #8]
 8000f40:	4567      	cmp	r7, ip
 8000f42:	d10f      	bne.n	8000f64 <HAL_ADC_ConfigChannel+0x70>
 8000f44:	6a90      	ldr	r0, [r2, #40]	; 0x28
 8000f46:	4301      	orrs	r1, r0
 8000f48:	6291      	str	r1, [r2, #40]	; 0x28
 8000f4a:	68b1      	ldr	r1, [r6, #8]
 8000f4c:	6955      	ldr	r5, [r2, #20]
 8000f4e:	0218      	lsls	r0, r3, #8
 8000f50:	4e6c      	ldr	r6, [pc, #432]	; (8001104 <HAL_ADC_ConfigChannel+0x210>)
 8000f52:	4001      	ands	r1, r0
 8000f54:	4031      	ands	r1, r6
 8000f56:	4385      	bics	r5, r0
 8000f58:	4329      	orrs	r1, r5
 8000f5a:	6151      	str	r1, [r2, #20]
 8000f5c:	2b00      	cmp	r3, #0
 8000f5e:	db70      	blt.n	8001042 <HAL_ADC_ConfigChannel+0x14e>
 8000f60:	2000      	movs	r0, #0
 8000f62:	e0a1      	b.n	80010a8 <HAL_ADC_ConfigChannel+0x1b4>
 8000f64:	211f      	movs	r1, #31
 8000f66:	9f01      	ldr	r7, [sp, #4]
 8000f68:	400f      	ands	r7, r1
 8000f6a:	46bc      	mov	ip, r7
 8000f6c:	270f      	movs	r7, #15
 8000f6e:	4661      	mov	r1, ip
 8000f70:	408f      	lsls	r7, r1
 8000f72:	43f9      	mvns	r1, r7
 8000f74:	9103      	str	r1, [sp, #12]
 8000f76:	6e21      	ldr	r1, [r4, #96]	; 0x60
 8000f78:	43b9      	bics	r1, r7
 8000f7a:	000f      	movs	r7, r1
 8000f7c:	9902      	ldr	r1, [sp, #8]
 8000f7e:	2900      	cmp	r1, #0
 8000f80:	d114      	bne.n	8000fac <HAL_ADC_ConfigChannel+0xb8>
 8000f82:	0e98      	lsrs	r0, r3, #26
 8000f84:	311f      	adds	r1, #31
 8000f86:	4008      	ands	r0, r1
 8000f88:	4661      	mov	r1, ip
 8000f8a:	4088      	lsls	r0, r1
 8000f8c:	9901      	ldr	r1, [sp, #4]
 8000f8e:	4307      	orrs	r7, r0
 8000f90:	0889      	lsrs	r1, r1, #2
 8000f92:	69e0      	ldr	r0, [r4, #28]
 8000f94:	3101      	adds	r1, #1
 8000f96:	6627      	str	r7, [r4, #96]	; 0x60
 8000f98:	4281      	cmp	r1, r0
 8000f9a:	d8d6      	bhi.n	8000f4a <HAL_ADC_ConfigChannel+0x56>
 8000f9c:	4665      	mov	r5, ip
 8000f9e:	0099      	lsls	r1, r3, #2
 8000fa0:	0f09      	lsrs	r1, r1, #28
 8000fa2:	40a9      	lsls	r1, r5
 8000fa4:	6a90      	ldr	r0, [r2, #40]	; 0x28
 8000fa6:	9d03      	ldr	r5, [sp, #12]
 8000fa8:	4028      	ands	r0, r5
 8000faa:	e7cc      	b.n	8000f46 <HAL_ADC_ConfigChannel+0x52>
 8000fac:	422b      	tst	r3, r5
 8000fae:	d1eb      	bne.n	8000f88 <HAL_ADC_ConfigChannel+0x94>
 8000fb0:	2102      	movs	r1, #2
 8000fb2:	0028      	movs	r0, r5
 8000fb4:	420b      	tst	r3, r1
 8000fb6:	d1e7      	bne.n	8000f88 <HAL_ADC_ConfigChannel+0x94>
 8000fb8:	0008      	movs	r0, r1
 8000fba:	1849      	adds	r1, r1, r1
 8000fbc:	420b      	tst	r3, r1
 8000fbe:	d1e3      	bne.n	8000f88 <HAL_ADC_ConfigChannel+0x94>
 8000fc0:	3001      	adds	r0, #1
 8000fc2:	0719      	lsls	r1, r3, #28
 8000fc4:	d4e0      	bmi.n	8000f88 <HAL_ADC_ConfigChannel+0x94>
 8000fc6:	3001      	adds	r0, #1
 8000fc8:	06d9      	lsls	r1, r3, #27
 8000fca:	d4dd      	bmi.n	8000f88 <HAL_ADC_ConfigChannel+0x94>
 8000fcc:	3001      	adds	r0, #1
 8000fce:	0699      	lsls	r1, r3, #26
 8000fd0:	d4da      	bmi.n	8000f88 <HAL_ADC_ConfigChannel+0x94>
 8000fd2:	3001      	adds	r0, #1
 8000fd4:	0659      	lsls	r1, r3, #25
 8000fd6:	d4d7      	bmi.n	8000f88 <HAL_ADC_ConfigChannel+0x94>
 8000fd8:	3001      	adds	r0, #1
 8000fda:	0619      	lsls	r1, r3, #24
 8000fdc:	d4d4      	bmi.n	8000f88 <HAL_ADC_ConfigChannel+0x94>
 8000fde:	3001      	adds	r0, #1
 8000fe0:	05d9      	lsls	r1, r3, #23
 8000fe2:	d4d1      	bmi.n	8000f88 <HAL_ADC_ConfigChannel+0x94>
 8000fe4:	3001      	adds	r0, #1
 8000fe6:	0599      	lsls	r1, r3, #22
 8000fe8:	d4ce      	bmi.n	8000f88 <HAL_ADC_ConfigChannel+0x94>
 8000fea:	3001      	adds	r0, #1
 8000fec:	0559      	lsls	r1, r3, #21
 8000fee:	d4cb      	bmi.n	8000f88 <HAL_ADC_ConfigChannel+0x94>
 8000ff0:	3001      	adds	r0, #1
 8000ff2:	0519      	lsls	r1, r3, #20
 8000ff4:	d4c8      	bmi.n	8000f88 <HAL_ADC_ConfigChannel+0x94>
 8000ff6:	3001      	adds	r0, #1
 8000ff8:	04d9      	lsls	r1, r3, #19
 8000ffa:	d4c5      	bmi.n	8000f88 <HAL_ADC_ConfigChannel+0x94>
 8000ffc:	3001      	adds	r0, #1
 8000ffe:	0499      	lsls	r1, r3, #18
 8001000:	d4c2      	bmi.n	8000f88 <HAL_ADC_ConfigChannel+0x94>
 8001002:	3001      	adds	r0, #1
 8001004:	0459      	lsls	r1, r3, #17
 8001006:	d4bf      	bmi.n	8000f88 <HAL_ADC_ConfigChannel+0x94>
 8001008:	3001      	adds	r0, #1
 800100a:	0419      	lsls	r1, r3, #16
 800100c:	d4bc      	bmi.n	8000f88 <HAL_ADC_ConfigChannel+0x94>
 800100e:	3001      	adds	r0, #1
 8001010:	03d9      	lsls	r1, r3, #15
 8001012:	d4b9      	bmi.n	8000f88 <HAL_ADC_ConfigChannel+0x94>
 8001014:	3001      	adds	r0, #1
 8001016:	0399      	lsls	r1, r3, #14
 8001018:	d4b6      	bmi.n	8000f88 <HAL_ADC_ConfigChannel+0x94>
 800101a:	3001      	adds	r0, #1
 800101c:	0359      	lsls	r1, r3, #13
 800101e:	d4b3      	bmi.n	8000f88 <HAL_ADC_ConfigChannel+0x94>
 8001020:	3001      	adds	r0, #1
 8001022:	0319      	lsls	r1, r3, #12
 8001024:	d4b0      	bmi.n	8000f88 <HAL_ADC_ConfigChannel+0x94>
 8001026:	3001      	adds	r0, #1
 8001028:	02d9      	lsls	r1, r3, #11
 800102a:	d4ad      	bmi.n	8000f88 <HAL_ADC_ConfigChannel+0x94>
 800102c:	3001      	adds	r0, #1
 800102e:	0299      	lsls	r1, r3, #10
 8001030:	d4aa      	bmi.n	8000f88 <HAL_ADC_ConfigChannel+0x94>
 8001032:	2180      	movs	r1, #128	; 0x80
 8001034:	0018      	movs	r0, r3
 8001036:	03c9      	lsls	r1, r1, #15
 8001038:	4008      	ands	r0, r1
 800103a:	420b      	tst	r3, r1
 800103c:	d0a4      	beq.n	8000f88 <HAL_ADC_ConfigChannel+0x94>
 800103e:	2016      	movs	r0, #22
 8001040:	e7a2      	b.n	8000f88 <HAL_ADC_ConfigChannel+0x94>
 8001042:	25c0      	movs	r5, #192	; 0xc0
 8001044:	4a30      	ldr	r2, [pc, #192]	; (8001108 <HAL_ADC_ConfigChannel+0x214>)
 8001046:	4931      	ldr	r1, [pc, #196]	; (800110c <HAL_ADC_ConfigChannel+0x218>)
 8001048:	6816      	ldr	r6, [r2, #0]
 800104a:	042d      	lsls	r5, r5, #16
 800104c:	4035      	ands	r5, r6
 800104e:	428b      	cmp	r3, r1
 8001050:	d119      	bne.n	8001086 <HAL_ADC_ConfigChannel+0x192>
 8001052:	2080      	movs	r0, #128	; 0x80
 8001054:	0400      	lsls	r0, r0, #16
 8001056:	4206      	tst	r6, r0
 8001058:	d182      	bne.n	8000f60 <HAL_ADC_ConfigChannel+0x6c>
 800105a:	6813      	ldr	r3, [r2, #0]
 800105c:	492c      	ldr	r1, [pc, #176]	; (8001110 <HAL_ADC_ConfigChannel+0x21c>)
 800105e:	400b      	ands	r3, r1
 8001060:	432b      	orrs	r3, r5
 8001062:	4303      	orrs	r3, r0
 8001064:	6013      	str	r3, [r2, #0]
 8001066:	4b2b      	ldr	r3, [pc, #172]	; (8001114 <HAL_ADC_ConfigChannel+0x220>)
 8001068:	492b      	ldr	r1, [pc, #172]	; (8001118 <HAL_ADC_ConfigChannel+0x224>)
 800106a:	6818      	ldr	r0, [r3, #0]
 800106c:	f7ff f860 	bl	8000130 <__udivsi3>
 8001070:	230c      	movs	r3, #12
 8001072:	4343      	muls	r3, r0
 8001074:	3301      	adds	r3, #1
 8001076:	9305      	str	r3, [sp, #20]
 8001078:	9b05      	ldr	r3, [sp, #20]
 800107a:	2b00      	cmp	r3, #0
 800107c:	d100      	bne.n	8001080 <HAL_ADC_ConfigChannel+0x18c>
 800107e:	e76f      	b.n	8000f60 <HAL_ADC_ConfigChannel+0x6c>
 8001080:	9b05      	ldr	r3, [sp, #20]
 8001082:	3b01      	subs	r3, #1
 8001084:	e7f7      	b.n	8001076 <HAL_ADC_ConfigChannel+0x182>
 8001086:	4925      	ldr	r1, [pc, #148]	; (800111c <HAL_ADC_ConfigChannel+0x228>)
 8001088:	428b      	cmp	r3, r1
 800108a:	d000      	beq.n	800108e <HAL_ADC_ConfigChannel+0x19a>
 800108c:	e768      	b.n	8000f60 <HAL_ADC_ConfigChannel+0x6c>
 800108e:	2380      	movs	r3, #128	; 0x80
 8001090:	0030      	movs	r0, r6
 8001092:	03db      	lsls	r3, r3, #15
 8001094:	4018      	ands	r0, r3
 8001096:	421e      	tst	r6, r3
 8001098:	d000      	beq.n	800109c <HAL_ADC_ConfigChannel+0x1a8>
 800109a:	e761      	b.n	8000f60 <HAL_ADC_ConfigChannel+0x6c>
 800109c:	6811      	ldr	r1, [r2, #0]
 800109e:	4e1c      	ldr	r6, [pc, #112]	; (8001110 <HAL_ADC_ConfigChannel+0x21c>)
 80010a0:	4031      	ands	r1, r6
 80010a2:	4329      	orrs	r1, r5
 80010a4:	430b      	orrs	r3, r1
 80010a6:	6013      	str	r3, [r2, #0]
 80010a8:	2300      	movs	r3, #0
 80010aa:	3454      	adds	r4, #84	; 0x54
 80010ac:	7023      	strb	r3, [r4, #0]
 80010ae:	b007      	add	sp, #28
 80010b0:	bdf0      	pop	{r4, r5, r6, r7, pc}
 80010b2:	4567      	cmp	r7, ip
 80010b4:	d105      	bne.n	80010c2 <HAL_ADC_ConfigChannel+0x1ce>
 80010b6:	6820      	ldr	r0, [r4, #0]
 80010b8:	0259      	lsls	r1, r3, #9
 80010ba:	6a82      	ldr	r2, [r0, #40]	; 0x28
 80010bc:	0a49      	lsrs	r1, r1, #9
 80010be:	438a      	bics	r2, r1
 80010c0:	6282      	str	r2, [r0, #40]	; 0x28
 80010c2:	2b00      	cmp	r3, #0
 80010c4:	db00      	blt.n	80010c8 <HAL_ADC_ConfigChannel+0x1d4>
 80010c6:	e74b      	b.n	8000f60 <HAL_ADC_ConfigChannel+0x6c>
 80010c8:	490f      	ldr	r1, [pc, #60]	; (8001108 <HAL_ADC_ConfigChannel+0x214>)
 80010ca:	4810      	ldr	r0, [pc, #64]	; (800110c <HAL_ADC_ConfigChannel+0x218>)
 80010cc:	680a      	ldr	r2, [r1, #0]
 80010ce:	4283      	cmp	r3, r0
 80010d0:	d108      	bne.n	80010e4 <HAL_ADC_ConfigChannel+0x1f0>
 80010d2:	2380      	movs	r3, #128	; 0x80
 80010d4:	03db      	lsls	r3, r3, #15
 80010d6:	401a      	ands	r2, r3
 80010d8:	6808      	ldr	r0, [r1, #0]
 80010da:	4b0d      	ldr	r3, [pc, #52]	; (8001110 <HAL_ADC_ConfigChannel+0x21c>)
 80010dc:	4003      	ands	r3, r0
 80010de:	431a      	orrs	r2, r3
 80010e0:	600a      	str	r2, [r1, #0]
 80010e2:	e73d      	b.n	8000f60 <HAL_ADC_ConfigChannel+0x6c>
 80010e4:	480d      	ldr	r0, [pc, #52]	; (800111c <HAL_ADC_ConfigChannel+0x228>)
 80010e6:	4283      	cmp	r3, r0
 80010e8:	d000      	beq.n	80010ec <HAL_ADC_ConfigChannel+0x1f8>
 80010ea:	e739      	b.n	8000f60 <HAL_ADC_ConfigChannel+0x6c>
 80010ec:	2080      	movs	r0, #128	; 0x80
 80010ee:	0400      	lsls	r0, r0, #16
 80010f0:	4002      	ands	r2, r0
 80010f2:	680b      	ldr	r3, [r1, #0]
 80010f4:	4806      	ldr	r0, [pc, #24]	; (8001110 <HAL_ADC_ConfigChannel+0x21c>)
 80010f6:	e7f1      	b.n	80010dc <HAL_ADC_ConfigChannel+0x1e8>
 80010f8:	2320      	movs	r3, #32
 80010fa:	6da2      	ldr	r2, [r4, #88]	; 0x58
 80010fc:	0028      	movs	r0, r5
 80010fe:	4313      	orrs	r3, r2
 8001100:	65a3      	str	r3, [r4, #88]	; 0x58
 8001102:	e7d1      	b.n	80010a8 <HAL_ADC_ConfigChannel+0x1b4>
 8001104:	7fffff00 	.word	0x7fffff00
 8001108:	40012708 	.word	0x40012708
 800110c:	a4000200 	.word	0xa4000200
 8001110:	ff3fffff 	.word	0xff3fffff
 8001114:	20000000 	.word	0x20000000
 8001118:	00030d40 	.word	0x00030d40
 800111c:	a8000400 	.word	0xa8000400

08001120 <ADC_ConversionStop>:
 8001120:	b570      	push	{r4, r5, r6, lr}
 8001122:	0004      	movs	r4, r0
 8001124:	6800      	ldr	r0, [r0, #0]
 8001126:	f7ff fd55 	bl	8000bd4 <LL_ADC_REG_IsConversionOngoing>
 800112a:	2800      	cmp	r0, #0
 800112c:	d101      	bne.n	8001132 <ADC_ConversionStop+0x12>
 800112e:	2000      	movs	r0, #0
 8001130:	bd70      	pop	{r4, r5, r6, pc}
 8001132:	6823      	ldr	r3, [r4, #0]
 8001134:	689a      	ldr	r2, [r3, #8]
 8001136:	0792      	lsls	r2, r2, #30
 8001138:	d405      	bmi.n	8001146 <ADC_ConversionStop+0x26>
 800113a:	689a      	ldr	r2, [r3, #8]
 800113c:	490d      	ldr	r1, [pc, #52]	; (8001174 <ADC_ConversionStop+0x54>)
 800113e:	4011      	ands	r1, r2
 8001140:	2210      	movs	r2, #16
 8001142:	430a      	orrs	r2, r1
 8001144:	609a      	str	r2, [r3, #8]
 8001146:	f7ff fd2d 	bl	8000ba4 <HAL_GetTick>
 800114a:	2604      	movs	r6, #4
 800114c:	0005      	movs	r5, r0
 800114e:	6823      	ldr	r3, [r4, #0]
 8001150:	689b      	ldr	r3, [r3, #8]
 8001152:	4233      	tst	r3, r6
 8001154:	d0eb      	beq.n	800112e <ADC_ConversionStop+0xe>
 8001156:	f7ff fd25 	bl	8000ba4 <HAL_GetTick>
 800115a:	1b40      	subs	r0, r0, r5
 800115c:	2802      	cmp	r0, #2
 800115e:	d9f6      	bls.n	800114e <ADC_ConversionStop+0x2e>
 8001160:	2310      	movs	r3, #16
 8001162:	2001      	movs	r0, #1
 8001164:	6da2      	ldr	r2, [r4, #88]	; 0x58
 8001166:	4313      	orrs	r3, r2
 8001168:	65a3      	str	r3, [r4, #88]	; 0x58
 800116a:	6de3      	ldr	r3, [r4, #92]	; 0x5c
 800116c:	4303      	orrs	r3, r0
 800116e:	65e3      	str	r3, [r4, #92]	; 0x5c
 8001170:	e7de      	b.n	8001130 <ADC_ConversionStop+0x10>
 8001172:	46c0      	nop			; (mov r8, r8)
 8001174:	7fffffe8 	.word	0x7fffffe8

08001178 <ADC_Enable>:
 8001178:	2300      	movs	r3, #0
 800117a:	b5f7      	push	{r0, r1, r2, r4, r5, r6, r7, lr}
 800117c:	0004      	movs	r4, r0
 800117e:	9301      	str	r3, [sp, #4]
 8001180:	6803      	ldr	r3, [r0, #0]
 8001182:	2001      	movs	r0, #1
 8001184:	689a      	ldr	r2, [r3, #8]
 8001186:	4202      	tst	r2, r0
 8001188:	d001      	beq.n	800118e <ADC_Enable+0x16>
 800118a:	2000      	movs	r0, #0
 800118c:	bdfe      	pop	{r1, r2, r3, r4, r5, r6, r7, pc}
 800118e:	6899      	ldr	r1, [r3, #8]
 8001190:	4a1f      	ldr	r2, [pc, #124]	; (8001210 <ADC_Enable+0x98>)
 8001192:	4211      	tst	r1, r2
 8001194:	d007      	beq.n	80011a6 <ADC_Enable+0x2e>
 8001196:	2310      	movs	r3, #16
 8001198:	6da2      	ldr	r2, [r4, #88]	; 0x58
 800119a:	4313      	orrs	r3, r2
 800119c:	65a3      	str	r3, [r4, #88]	; 0x58
 800119e:	6de3      	ldr	r3, [r4, #92]	; 0x5c
 80011a0:	4303      	orrs	r3, r0
 80011a2:	65e3      	str	r3, [r4, #92]	; 0x5c
 80011a4:	e7f2      	b.n	800118c <ADC_Enable+0x14>
 80011a6:	689a      	ldr	r2, [r3, #8]
 80011a8:	4d1a      	ldr	r5, [pc, #104]	; (8001214 <ADC_Enable+0x9c>)
 80011aa:	402a      	ands	r2, r5
 80011ac:	4310      	orrs	r0, r2
 80011ae:	6098      	str	r0, [r3, #8]
 80011b0:	4b19      	ldr	r3, [pc, #100]	; (8001218 <ADC_Enable+0xa0>)
 80011b2:	681b      	ldr	r3, [r3, #0]
 80011b4:	021b      	lsls	r3, r3, #8
 80011b6:	d41d      	bmi.n	80011f4 <ADC_Enable+0x7c>
 80011b8:	7e63      	ldrb	r3, [r4, #25]
 80011ba:	2b01      	cmp	r3, #1
 80011bc:	d0e5      	beq.n	800118a <ADC_Enable+0x12>
 80011be:	f7ff fcf1 	bl	8000ba4 <HAL_GetTick>
 80011c2:	2601      	movs	r6, #1
 80011c4:	0007      	movs	r7, r0
 80011c6:	6822      	ldr	r2, [r4, #0]
 80011c8:	6813      	ldr	r3, [r2, #0]
 80011ca:	4233      	tst	r3, r6
 80011cc:	d1dd      	bne.n	800118a <ADC_Enable+0x12>
 80011ce:	6893      	ldr	r3, [r2, #8]
 80011d0:	4233      	tst	r3, r6
 80011d2:	d103      	bne.n	80011dc <ADC_Enable+0x64>
 80011d4:	6893      	ldr	r3, [r2, #8]
 80011d6:	402b      	ands	r3, r5
 80011d8:	4333      	orrs	r3, r6
 80011da:	6093      	str	r3, [r2, #8]
 80011dc:	f7ff fce2 	bl	8000ba4 <HAL_GetTick>
 80011e0:	1bc0      	subs	r0, r0, r7
 80011e2:	2802      	cmp	r0, #2
 80011e4:	d9ef      	bls.n	80011c6 <ADC_Enable+0x4e>
 80011e6:	2310      	movs	r3, #16
 80011e8:	6da2      	ldr	r2, [r4, #88]	; 0x58
 80011ea:	2001      	movs	r0, #1
 80011ec:	4313      	orrs	r3, r2
 80011ee:	65a3      	str	r3, [r4, #88]	; 0x58
 80011f0:	6de3      	ldr	r3, [r4, #92]	; 0x5c
 80011f2:	e7d5      	b.n	80011a0 <ADC_Enable+0x28>
 80011f4:	4b09      	ldr	r3, [pc, #36]	; (800121c <ADC_Enable+0xa4>)
 80011f6:	490a      	ldr	r1, [pc, #40]	; (8001220 <ADC_Enable+0xa8>)
 80011f8:	6818      	ldr	r0, [r3, #0]
 80011fa:	f7fe ff99 	bl	8000130 <__udivsi3>
 80011fe:	3001      	adds	r0, #1
 8001200:	9001      	str	r0, [sp, #4]
 8001202:	9b01      	ldr	r3, [sp, #4]
 8001204:	2b00      	cmp	r3, #0
 8001206:	d0d7      	beq.n	80011b8 <ADC_Enable+0x40>
 8001208:	9b01      	ldr	r3, [sp, #4]
 800120a:	3b01      	subs	r3, #1
 800120c:	9301      	str	r3, [sp, #4]
 800120e:	e7f8      	b.n	8001202 <ADC_Enable+0x8a>
 8001210:	80000017 	.word	0x80000017
 8001214:	7fffffe8 	.word	0x7fffffe8
 8001218:	40012708 	.word	0x40012708
 800121c:	20000000 	.word	0x20000000
 8001220:	00030d40 	.word	0x00030d40

08001224 <HAL_ADC_Start>:
 8001224:	b570      	push	{r4, r5, r6, lr}
 8001226:	0004      	movs	r4, r0
 8001228:	6800      	ldr	r0, [r0, #0]
 800122a:	f7ff fcd3 	bl	8000bd4 <LL_ADC_REG_IsConversionOngoing>
 800122e:	0006      	movs	r6, r0
 8001230:	2002      	movs	r0, #2
 8001232:	2e00      	cmp	r6, #0
 8001234:	d11d      	bne.n	8001272 <HAL_ADC_Start+0x4e>
 8001236:	0025      	movs	r5, r4
 8001238:	3554      	adds	r5, #84	; 0x54
 800123a:	782b      	ldrb	r3, [r5, #0]
 800123c:	2b01      	cmp	r3, #1
 800123e:	d018      	beq.n	8001272 <HAL_ADC_Start+0x4e>
 8001240:	2301      	movs	r3, #1
 8001242:	0020      	movs	r0, r4
 8001244:	702b      	strb	r3, [r5, #0]
 8001246:	f7ff ff97 	bl	8001178 <ADC_Enable>
 800124a:	2800      	cmp	r0, #0
 800124c:	d112      	bne.n	8001274 <HAL_ADC_Start+0x50>
 800124e:	6da3      	ldr	r3, [r4, #88]	; 0x58
 8001250:	4a09      	ldr	r2, [pc, #36]	; (8001278 <HAL_ADC_Start+0x54>)
 8001252:	490a      	ldr	r1, [pc, #40]	; (800127c <HAL_ADC_Start+0x58>)
 8001254:	401a      	ands	r2, r3
 8001256:	2380      	movs	r3, #128	; 0x80
 8001258:	005b      	lsls	r3, r3, #1
 800125a:	4313      	orrs	r3, r2
 800125c:	221c      	movs	r2, #28
 800125e:	65a3      	str	r3, [r4, #88]	; 0x58
 8001260:	6823      	ldr	r3, [r4, #0]
 8001262:	65e0      	str	r0, [r4, #92]	; 0x5c
 8001264:	601a      	str	r2, [r3, #0]
 8001266:	7028      	strb	r0, [r5, #0]
 8001268:	689a      	ldr	r2, [r3, #8]
 800126a:	4011      	ands	r1, r2
 800126c:	2204      	movs	r2, #4
 800126e:	430a      	orrs	r2, r1
 8001270:	609a      	str	r2, [r3, #8]
 8001272:	bd70      	pop	{r4, r5, r6, pc}
 8001274:	702e      	strb	r6, [r5, #0]
 8001276:	e7fc      	b.n	8001272 <HAL_ADC_Start+0x4e>
 8001278:	fffff0fe 	.word	0xfffff0fe
 800127c:	7fffffe8 	.word	0x7fffffe8

08001280 <ADC_Disable>:
 8001280:	6803      	ldr	r3, [r0, #0]
 8001282:	b570      	push	{r4, r5, r6, lr}
 8001284:	0004      	movs	r4, r0
 8001286:	2001      	movs	r0, #1
 8001288:	6899      	ldr	r1, [r3, #8]
 800128a:	689a      	ldr	r2, [r3, #8]
 800128c:	4202      	tst	r2, r0
 800128e:	d101      	bne.n	8001294 <ADC_Disable+0x14>
 8001290:	2000      	movs	r0, #0
 8001292:	bd70      	pop	{r4, r5, r6, pc}
 8001294:	2202      	movs	r2, #2
 8001296:	4211      	tst	r1, r2
 8001298:	d1fa      	bne.n	8001290 <ADC_Disable+0x10>
 800129a:	2105      	movs	r1, #5
 800129c:	689d      	ldr	r5, [r3, #8]
 800129e:	400d      	ands	r5, r1
 80012a0:	2d01      	cmp	r5, #1
 80012a2:	d11b      	bne.n	80012dc <ADC_Disable+0x5c>
 80012a4:	6899      	ldr	r1, [r3, #8]
 80012a6:	4811      	ldr	r0, [pc, #68]	; (80012ec <ADC_Disable+0x6c>)
 80012a8:	4001      	ands	r1, r0
 80012aa:	430a      	orrs	r2, r1
 80012ac:	609a      	str	r2, [r3, #8]
 80012ae:	2203      	movs	r2, #3
 80012b0:	601a      	str	r2, [r3, #0]
 80012b2:	f7ff fc77 	bl	8000ba4 <HAL_GetTick>
 80012b6:	0006      	movs	r6, r0
 80012b8:	6823      	ldr	r3, [r4, #0]
 80012ba:	689b      	ldr	r3, [r3, #8]
 80012bc:	422b      	tst	r3, r5
 80012be:	d0e7      	beq.n	8001290 <ADC_Disable+0x10>
 80012c0:	f7ff fc70 	bl	8000ba4 <HAL_GetTick>
 80012c4:	1b80      	subs	r0, r0, r6
 80012c6:	2802      	cmp	r0, #2
 80012c8:	d9f6      	bls.n	80012b8 <ADC_Disable+0x38>
 80012ca:	2310      	movs	r3, #16
 80012cc:	6da2      	ldr	r2, [r4, #88]	; 0x58
 80012ce:	2001      	movs	r0, #1
 80012d0:	4313      	orrs	r3, r2
 80012d2:	65a3      	str	r3, [r4, #88]	; 0x58
 80012d4:	6de3      	ldr	r3, [r4, #92]	; 0x5c
 80012d6:	431d      	orrs	r5, r3
 80012d8:	65e5      	str	r5, [r4, #92]	; 0x5c
 80012da:	e7da      	b.n	8001292 <ADC_Disable+0x12>
 80012dc:	2310      	movs	r3, #16
 80012de:	6da2      	ldr	r2, [r4, #88]	; 0x58
 80012e0:	4313      	orrs	r3, r2
 80012e2:	65a3      	str	r3, [r4, #88]	; 0x58
 80012e4:	6de3      	ldr	r3, [r4, #92]	; 0x5c
 80012e6:	4303      	orrs	r3, r0
 80012e8:	65e3      	str	r3, [r4, #92]	; 0x5c
 80012ea:	e7d2      	b.n	8001292 <ADC_Disable+0x12>
 80012ec:	7fffffe8 	.word	0x7fffffe8

080012f0 <HAL_ADC_Stop>:
 80012f0:	b570      	push	{r4, r5, r6, lr}
 80012f2:	0006      	movs	r6, r0
 80012f4:	3654      	adds	r6, #84	; 0x54
 80012f6:	7833      	ldrb	r3, [r6, #0]
 80012f8:	0004      	movs	r4, r0
 80012fa:	2002      	movs	r0, #2
 80012fc:	2b01      	cmp	r3, #1
 80012fe:	d012      	beq.n	8001326 <HAL_ADC_Stop+0x36>
 8001300:	2501      	movs	r5, #1
 8001302:	0020      	movs	r0, r4
 8001304:	7035      	strb	r5, [r6, #0]
 8001306:	f7ff ff0b 	bl	8001120 <ADC_ConversionStop>
 800130a:	2800      	cmp	r0, #0
 800130c:	d109      	bne.n	8001322 <HAL_ADC_Stop+0x32>
 800130e:	0020      	movs	r0, r4
 8001310:	f7ff ffb6 	bl	8001280 <ADC_Disable>
 8001314:	2800      	cmp	r0, #0
 8001316:	d104      	bne.n	8001322 <HAL_ADC_Stop+0x32>
 8001318:	6da3      	ldr	r3, [r4, #88]	; 0x58
 800131a:	4a03      	ldr	r2, [pc, #12]	; (8001328 <HAL_ADC_Stop+0x38>)
 800131c:	4013      	ands	r3, r2
 800131e:	431d      	orrs	r5, r3
 8001320:	65a5      	str	r5, [r4, #88]	; 0x58
 8001322:	2300      	movs	r3, #0
 8001324:	7033      	strb	r3, [r6, #0]
 8001326:	bd70      	pop	{r4, r5, r6, pc}
 8001328:	fffffefe 	.word	0xfffffefe

0800132c <HAL_NVIC_SetPriority>:
 800132c:	b530      	push	{r4, r5, lr}
 800132e:	25ff      	movs	r5, #255	; 0xff
 8001330:	2403      	movs	r4, #3
 8001332:	002a      	movs	r2, r5
 8001334:	4004      	ands	r4, r0
 8001336:	00e4      	lsls	r4, r4, #3
 8001338:	40a2      	lsls	r2, r4
 800133a:	0189      	lsls	r1, r1, #6
 800133c:	4029      	ands	r1, r5
 800133e:	43d2      	mvns	r2, r2
 8001340:	40a1      	lsls	r1, r4
 8001342:	b2c3      	uxtb	r3, r0
 8001344:	2800      	cmp	r0, #0
 8001346:	db0a      	blt.n	800135e <HAL_NVIC_SetPriority+0x32>
 8001348:	24c0      	movs	r4, #192	; 0xc0
 800134a:	4b0b      	ldr	r3, [pc, #44]	; (8001378 <HAL_NVIC_SetPriority+0x4c>)
 800134c:	0880      	lsrs	r0, r0, #2
 800134e:	0080      	lsls	r0, r0, #2
 8001350:	18c0      	adds	r0, r0, r3
 8001352:	00a4      	lsls	r4, r4, #2
 8001354:	5903      	ldr	r3, [r0, r4]
 8001356:	401a      	ands	r2, r3
 8001358:	4311      	orrs	r1, r2
 800135a:	5101      	str	r1, [r0, r4]
 800135c:	bd30      	pop	{r4, r5, pc}
 800135e:	200f      	movs	r0, #15
 8001360:	4003      	ands	r3, r0
 8001362:	3b08      	subs	r3, #8
 8001364:	4805      	ldr	r0, [pc, #20]	; (800137c <HAL_NVIC_SetPriority+0x50>)
 8001366:	089b      	lsrs	r3, r3, #2
 8001368:	009b      	lsls	r3, r3, #2
 800136a:	181b      	adds	r3, r3, r0
 800136c:	69d8      	ldr	r0, [r3, #28]
 800136e:	4002      	ands	r2, r0
 8001370:	4311      	orrs	r1, r2
 8001372:	61d9      	str	r1, [r3, #28]
 8001374:	e7f2      	b.n	800135c <HAL_NVIC_SetPriority+0x30>
 8001376:	46c0      	nop			; (mov r8, r8)
 8001378:	e000e100 	.word	0xe000e100
 800137c:	e000ed00 	.word	0xe000ed00

08001380 <HAL_NVIC_EnableIRQ>:
 8001380:	2800      	cmp	r0, #0
 8001382:	db05      	blt.n	8001390 <HAL_NVIC_EnableIRQ+0x10>
 8001384:	231f      	movs	r3, #31
 8001386:	4018      	ands	r0, r3
 8001388:	3b1e      	subs	r3, #30
 800138a:	4083      	lsls	r3, r0
 800138c:	4a01      	ldr	r2, [pc, #4]	; (8001394 <HAL_NVIC_EnableIRQ+0x14>)
 800138e:	6013      	str	r3, [r2, #0]
 8001390:	4770      	bx	lr
 8001392:	46c0      	nop			; (mov r8, r8)
 8001394:	e000e100 	.word	0xe000e100

08001398 <HAL_SYSTICK_Config>:
 8001398:	2280      	movs	r2, #128	; 0x80
 800139a:	1e43      	subs	r3, r0, #1
 800139c:	0452      	lsls	r2, r2, #17
 800139e:	2001      	movs	r0, #1
 80013a0:	4293      	cmp	r3, r2
 80013a2:	d20d      	bcs.n	80013c0 <HAL_SYSTICK_Config+0x28>
 80013a4:	21c0      	movs	r1, #192	; 0xc0
 80013a6:	4a07      	ldr	r2, [pc, #28]	; (80013c4 <HAL_SYSTICK_Config+0x2c>)
 80013a8:	4807      	ldr	r0, [pc, #28]	; (80013c8 <HAL_SYSTICK_Config+0x30>)
 80013aa:	6053      	str	r3, [r2, #4]
 80013ac:	6a03      	ldr	r3, [r0, #32]
 80013ae:	0609      	lsls	r1, r1, #24
 80013b0:	021b      	lsls	r3, r3, #8
 80013b2:	0a1b      	lsrs	r3, r3, #8
 80013b4:	430b      	orrs	r3, r1
 80013b6:	6203      	str	r3, [r0, #32]
 80013b8:	2000      	movs	r0, #0
 80013ba:	2307      	movs	r3, #7
 80013bc:	6090      	str	r0, [r2, #8]
 80013be:	6013      	str	r3, [r2, #0]
 80013c0:	4770      	bx	lr
 80013c2:	46c0      	nop			; (mov r8, r8)
 80013c4:	e000e010 	.word	0xe000e010
 80013c8:	e000ed00 	.word	0xe000ed00

080013cc <DMA_SetConfig>:
 80013cc:	b5f0      	push	{r4, r5, r6, r7, lr}
 80013ce:	6c84      	ldr	r4, [r0, #72]	; 0x48
 80013d0:	6cc5      	ldr	r5, [r0, #76]	; 0x4c
 80013d2:	6065      	str	r5, [r4, #4]
 80013d4:	6d04      	ldr	r4, [r0, #80]	; 0x50
 80013d6:	2c00      	cmp	r4, #0
 80013d8:	d002      	beq.n	80013e0 <DMA_SetConfig+0x14>
 80013da:	6d44      	ldr	r4, [r0, #84]	; 0x54
 80013dc:	6d85      	ldr	r5, [r0, #88]	; 0x58
 80013de:	6065      	str	r5, [r4, #4]
 80013e0:	251c      	movs	r5, #28
 80013e2:	6c04      	ldr	r4, [r0, #64]	; 0x40
 80013e4:	4e08      	ldr	r6, [pc, #32]	; (8001408 <DMA_SetConfig+0x3c>)
 80013e6:	4025      	ands	r5, r4
 80013e8:	2401      	movs	r4, #1
 80013ea:	40ac      	lsls	r4, r5
 80013ec:	6877      	ldr	r7, [r6, #4]
 80013ee:	433c      	orrs	r4, r7
 80013f0:	6074      	str	r4, [r6, #4]
 80013f2:	6804      	ldr	r4, [r0, #0]
 80013f4:	6063      	str	r3, [r4, #4]
 80013f6:	6883      	ldr	r3, [r0, #8]
 80013f8:	2b10      	cmp	r3, #16
 80013fa:	d102      	bne.n	8001402 <DMA_SetConfig+0x36>
 80013fc:	60a2      	str	r2, [r4, #8]
 80013fe:	60e1      	str	r1, [r4, #12]
 8001400:	bdf0      	pop	{r4, r5, r6, r7, pc}
 8001402:	60a1      	str	r1, [r4, #8]
 8001404:	60e2      	str	r2, [r4, #12]
 8001406:	e7fb      	b.n	8001400 <DMA_SetConfig+0x34>
 8001408:	40020000 	.word	0x40020000

0800140c <DMA_CalcDMAMUXChannelBaseAndMask>:
 800140c:	b510      	push	{r4, lr}
 800140e:	0004      	movs	r4, r0
 8001410:	6803      	ldr	r3, [r0, #0]
 8001412:	2114      	movs	r1, #20
 8001414:	b2d8      	uxtb	r0, r3
 8001416:	3808      	subs	r0, #8
 8001418:	f7fe fe8a 	bl	8000130 <__udivsi3>
 800141c:	6c23      	ldr	r3, [r4, #64]	; 0x40
 800141e:	4a06      	ldr	r2, [pc, #24]	; (8001438 <DMA_CalcDMAMUXChannelBaseAndMask+0x2c>)
 8001420:	089b      	lsrs	r3, r3, #2
 8001422:	189b      	adds	r3, r3, r2
 8001424:	009b      	lsls	r3, r3, #2
 8001426:	6463      	str	r3, [r4, #68]	; 0x44
 8001428:	4b04      	ldr	r3, [pc, #16]	; (800143c <DMA_CalcDMAMUXChannelBaseAndMask+0x30>)
 800142a:	64a3      	str	r3, [r4, #72]	; 0x48
 800142c:	231c      	movs	r3, #28
 800142e:	4018      	ands	r0, r3
 8001430:	3b1b      	subs	r3, #27
 8001432:	4083      	lsls	r3, r0
 8001434:	64e3      	str	r3, [r4, #76]	; 0x4c
 8001436:	bd10      	pop	{r4, pc}
 8001438:	10008200 	.word	0x10008200
 800143c:	40020880 	.word	0x40020880

08001440 <HAL_DMA_Init>:
 8001440:	b570      	push	{r4, r5, r6, lr}
 8001442:	0004      	movs	r4, r0
 8001444:	2001      	movs	r0, #1
 8001446:	2c00      	cmp	r4, #0
 8001448:	d048      	beq.n	80014dc <HAL_DMA_Init+0x9c>
 800144a:	6825      	ldr	r5, [r4, #0]
 800144c:	4b26      	ldr	r3, [pc, #152]	; (80014e8 <HAL_DMA_Init+0xa8>)
 800144e:	2114      	movs	r1, #20
 8001450:	18e8      	adds	r0, r5, r3
 8001452:	f7fe fe6d 	bl	8000130 <__udivsi3>
 8001456:	2302      	movs	r3, #2
 8001458:	0080      	lsls	r0, r0, #2
 800145a:	1da6      	adds	r6, r4, #6
 800145c:	6420      	str	r0, [r4, #64]	; 0x40
 800145e:	77f3      	strb	r3, [r6, #31]
 8001460:	682b      	ldr	r3, [r5, #0]
 8001462:	4a22      	ldr	r2, [pc, #136]	; (80014ec <HAL_DMA_Init+0xac>)
 8001464:	68e1      	ldr	r1, [r4, #12]
 8001466:	4013      	ands	r3, r2
 8001468:	602b      	str	r3, [r5, #0]
 800146a:	68a3      	ldr	r3, [r4, #8]
 800146c:	682a      	ldr	r2, [r5, #0]
 800146e:	430b      	orrs	r3, r1
 8001470:	6921      	ldr	r1, [r4, #16]
 8001472:	0020      	movs	r0, r4
 8001474:	430b      	orrs	r3, r1
 8001476:	6961      	ldr	r1, [r4, #20]
 8001478:	430b      	orrs	r3, r1
 800147a:	69a1      	ldr	r1, [r4, #24]
 800147c:	430b      	orrs	r3, r1
 800147e:	69e1      	ldr	r1, [r4, #28]
 8001480:	430b      	orrs	r3, r1
 8001482:	6a21      	ldr	r1, [r4, #32]
 8001484:	430b      	orrs	r3, r1
 8001486:	4313      	orrs	r3, r2
 8001488:	602b      	str	r3, [r5, #0]
 800148a:	f7ff ffbf 	bl	800140c <DMA_CalcDMAMUXChannelBaseAndMask>
 800148e:	2380      	movs	r3, #128	; 0x80
 8001490:	68a2      	ldr	r2, [r4, #8]
 8001492:	01db      	lsls	r3, r3, #7
 8001494:	429a      	cmp	r2, r3
 8001496:	d101      	bne.n	800149c <HAL_DMA_Init+0x5c>
 8001498:	2300      	movs	r3, #0
 800149a:	6063      	str	r3, [r4, #4]
 800149c:	6862      	ldr	r2, [r4, #4]
 800149e:	6c61      	ldr	r1, [r4, #68]	; 0x44
 80014a0:	b2d3      	uxtb	r3, r2
 80014a2:	600b      	str	r3, [r1, #0]
 80014a4:	6ce0      	ldr	r0, [r4, #76]	; 0x4c
 80014a6:	6ca1      	ldr	r1, [r4, #72]	; 0x48
 80014a8:	3a01      	subs	r2, #1
 80014aa:	6048      	str	r0, [r1, #4]
 80014ac:	2a03      	cmp	r2, #3
 80014ae:	d816      	bhi.n	80014de <HAL_DMA_Init+0x9e>
 80014b0:	4a0f      	ldr	r2, [pc, #60]	; (80014f0 <HAL_DMA_Init+0xb0>)
 80014b2:	4810      	ldr	r0, [pc, #64]	; (80014f4 <HAL_DMA_Init+0xb4>)
 80014b4:	1899      	adds	r1, r3, r2
 80014b6:	2203      	movs	r2, #3
 80014b8:	3b01      	subs	r3, #1
 80014ba:	4013      	ands	r3, r2
 80014bc:	3a02      	subs	r2, #2
 80014be:	409a      	lsls	r2, r3
 80014c0:	65a2      	str	r2, [r4, #88]	; 0x58
 80014c2:	0013      	movs	r3, r2
 80014c4:	2200      	movs	r2, #0
 80014c6:	0089      	lsls	r1, r1, #2
 80014c8:	6521      	str	r1, [r4, #80]	; 0x50
 80014ca:	6560      	str	r0, [r4, #84]	; 0x54
 80014cc:	600a      	str	r2, [r1, #0]
 80014ce:	6043      	str	r3, [r0, #4]
 80014d0:	2000      	movs	r0, #0
 80014d2:	2301      	movs	r3, #1
 80014d4:	63e0      	str	r0, [r4, #60]	; 0x3c
 80014d6:	3405      	adds	r4, #5
 80014d8:	77f3      	strb	r3, [r6, #31]
 80014da:	77e0      	strb	r0, [r4, #31]
 80014dc:	bd70      	pop	{r4, r5, r6, pc}
 80014de:	2300      	movs	r3, #0
 80014e0:	6523      	str	r3, [r4, #80]	; 0x50
 80014e2:	6563      	str	r3, [r4, #84]	; 0x54
 80014e4:	65a3      	str	r3, [r4, #88]	; 0x58
 80014e6:	e7f3      	b.n	80014d0 <HAL_DMA_Init+0x90>
 80014e8:	bffdfff8 	.word	0xbffdfff8
 80014ec:	ffff800f 	.word	0xffff800f
 80014f0:	1000823f 	.word	0x1000823f
 80014f4:	40020940 	.word	0x40020940

080014f8 <HAL_DMA_Start_IT>:
 80014f8:	b5f7      	push	{r0, r1, r2, r4, r5, r6, r7, lr}
 80014fa:	1d45      	adds	r5, r0, #5
 80014fc:	9301      	str	r3, [sp, #4]
 80014fe:	7fee      	ldrb	r6, [r5, #31]
 8001500:	0004      	movs	r4, r0
 8001502:	2002      	movs	r0, #2
 8001504:	2e01      	cmp	r6, #1
 8001506:	d037      	beq.n	8001578 <HAL_DMA_Start_IT+0x80>
 8001508:	3801      	subs	r0, #1
 800150a:	77e8      	strb	r0, [r5, #31]
 800150c:	1da6      	adds	r6, r4, #6
 800150e:	7ff0      	ldrb	r0, [r6, #31]
 8001510:	2702      	movs	r7, #2
 8001512:	4684      	mov	ip, r0
 8001514:	4663      	mov	r3, ip
 8001516:	b2c0      	uxtb	r0, r0
 8001518:	9000      	str	r0, [sp, #0]
 800151a:	0038      	movs	r0, r7
 800151c:	2b01      	cmp	r3, #1
 800151e:	d129      	bne.n	8001574 <HAL_DMA_Start_IT+0x7c>
 8001520:	2000      	movs	r0, #0
 8001522:	77f7      	strb	r7, [r6, #31]
 8001524:	6826      	ldr	r6, [r4, #0]
 8001526:	63e0      	str	r0, [r4, #60]	; 0x3c
 8001528:	6830      	ldr	r0, [r6, #0]
 800152a:	9b00      	ldr	r3, [sp, #0]
 800152c:	4398      	bics	r0, r3
 800152e:	6030      	str	r0, [r6, #0]
 8001530:	9b01      	ldr	r3, [sp, #4]
 8001532:	0020      	movs	r0, r4
 8001534:	f7ff ff4a 	bl	80013cc <DMA_SetConfig>
 8001538:	6b22      	ldr	r2, [r4, #48]	; 0x30
 800153a:	6823      	ldr	r3, [r4, #0]
 800153c:	2a00      	cmp	r2, #0
 800153e:	d01c      	beq.n	800157a <HAL_DMA_Start_IT+0x82>
 8001540:	220e      	movs	r2, #14
 8001542:	6819      	ldr	r1, [r3, #0]
 8001544:	430a      	orrs	r2, r1
 8001546:	601a      	str	r2, [r3, #0]
 8001548:	6c62      	ldr	r2, [r4, #68]	; 0x44
 800154a:	6811      	ldr	r1, [r2, #0]
 800154c:	03c9      	lsls	r1, r1, #15
 800154e:	d504      	bpl.n	800155a <HAL_DMA_Start_IT+0x62>
 8001550:	2180      	movs	r1, #128	; 0x80
 8001552:	6810      	ldr	r0, [r2, #0]
 8001554:	0049      	lsls	r1, r1, #1
 8001556:	4301      	orrs	r1, r0
 8001558:	6011      	str	r1, [r2, #0]
 800155a:	6d22      	ldr	r2, [r4, #80]	; 0x50
 800155c:	2a00      	cmp	r2, #0
 800155e:	d004      	beq.n	800156a <HAL_DMA_Start_IT+0x72>
 8001560:	2180      	movs	r1, #128	; 0x80
 8001562:	6810      	ldr	r0, [r2, #0]
 8001564:	0049      	lsls	r1, r1, #1
 8001566:	4301      	orrs	r1, r0
 8001568:	6011      	str	r1, [r2, #0]
 800156a:	2201      	movs	r2, #1
 800156c:	2000      	movs	r0, #0
 800156e:	6819      	ldr	r1, [r3, #0]
 8001570:	430a      	orrs	r2, r1
 8001572:	601a      	str	r2, [r3, #0]
 8001574:	2300      	movs	r3, #0
 8001576:	77eb      	strb	r3, [r5, #31]
 8001578:	bdfe      	pop	{r1, r2, r3, r4, r5, r6, r7, pc}
 800157a:	2104      	movs	r1, #4
 800157c:	681a      	ldr	r2, [r3, #0]
 800157e:	438a      	bics	r2, r1
 8001580:	601a      	str	r2, [r3, #0]
 8001582:	6819      	ldr	r1, [r3, #0]
 8001584:	220a      	movs	r2, #10
 8001586:	e7dd      	b.n	8001544 <HAL_DMA_Start_IT+0x4c>

08001588 <HAL_DMA_IRQHandler>:
 8001588:	b5f8      	push	{r3, r4, r5, r6, r7, lr}
 800158a:	211c      	movs	r1, #28
 800158c:	2704      	movs	r7, #4
 800158e:	6c04      	ldr	r4, [r0, #64]	; 0x40
 8001590:	4a26      	ldr	r2, [pc, #152]	; (800162c <HAL_DMA_IRQHandler+0xa4>)
 8001592:	4021      	ands	r1, r4
 8001594:	003c      	movs	r4, r7
 8001596:	408c      	lsls	r4, r1
 8001598:	6816      	ldr	r6, [r2, #0]
 800159a:	6803      	ldr	r3, [r0, #0]
 800159c:	681d      	ldr	r5, [r3, #0]
 800159e:	4226      	tst	r6, r4
 80015a0:	d00f      	beq.n	80015c2 <HAL_DMA_IRQHandler+0x3a>
 80015a2:	423d      	tst	r5, r7
 80015a4:	d00d      	beq.n	80015c2 <HAL_DMA_IRQHandler+0x3a>
 80015a6:	6819      	ldr	r1, [r3, #0]
 80015a8:	0689      	lsls	r1, r1, #26
 80015aa:	d402      	bmi.n	80015b2 <HAL_DMA_IRQHandler+0x2a>
 80015ac:	6819      	ldr	r1, [r3, #0]
 80015ae:	43b9      	bics	r1, r7
 80015b0:	6019      	str	r1, [r3, #0]
 80015b2:	6853      	ldr	r3, [r2, #4]
 80015b4:	431c      	orrs	r4, r3
 80015b6:	6b03      	ldr	r3, [r0, #48]	; 0x30
 80015b8:	6054      	str	r4, [r2, #4]
 80015ba:	2b00      	cmp	r3, #0
 80015bc:	d01b      	beq.n	80015f6 <HAL_DMA_IRQHandler+0x6e>
 80015be:	4798      	blx	r3
 80015c0:	e019      	b.n	80015f6 <HAL_DMA_IRQHandler+0x6e>
 80015c2:	2702      	movs	r7, #2
 80015c4:	003c      	movs	r4, r7
 80015c6:	408c      	lsls	r4, r1
 80015c8:	4226      	tst	r6, r4
 80015ca:	d015      	beq.n	80015f8 <HAL_DMA_IRQHandler+0x70>
 80015cc:	423d      	tst	r5, r7
 80015ce:	d013      	beq.n	80015f8 <HAL_DMA_IRQHandler+0x70>
 80015d0:	6819      	ldr	r1, [r3, #0]
 80015d2:	0689      	lsls	r1, r1, #26
 80015d4:	d406      	bmi.n	80015e4 <HAL_DMA_IRQHandler+0x5c>
 80015d6:	250a      	movs	r5, #10
 80015d8:	6819      	ldr	r1, [r3, #0]
 80015da:	43a9      	bics	r1, r5
 80015dc:	6019      	str	r1, [r3, #0]
 80015de:	2101      	movs	r1, #1
 80015e0:	1d83      	adds	r3, r0, #6
 80015e2:	77d9      	strb	r1, [r3, #31]
 80015e4:	6853      	ldr	r3, [r2, #4]
 80015e6:	431c      	orrs	r4, r3
 80015e8:	6054      	str	r4, [r2, #4]
 80015ea:	2200      	movs	r2, #0
 80015ec:	1d43      	adds	r3, r0, #5
 80015ee:	77da      	strb	r2, [r3, #31]
 80015f0:	6ac3      	ldr	r3, [r0, #44]	; 0x2c
 80015f2:	4293      	cmp	r3, r2
 80015f4:	d1e3      	bne.n	80015be <HAL_DMA_IRQHandler+0x36>
 80015f6:	bdf8      	pop	{r3, r4, r5, r6, r7, pc}
 80015f8:	2408      	movs	r4, #8
 80015fa:	0027      	movs	r7, r4
 80015fc:	408f      	lsls	r7, r1
 80015fe:	423e      	tst	r6, r7
 8001600:	d0f9      	beq.n	80015f6 <HAL_DMA_IRQHandler+0x6e>
 8001602:	4225      	tst	r5, r4
 8001604:	d0f7      	beq.n	80015f6 <HAL_DMA_IRQHandler+0x6e>
 8001606:	250e      	movs	r5, #14
 8001608:	681c      	ldr	r4, [r3, #0]
 800160a:	43ac      	bics	r4, r5
 800160c:	601c      	str	r4, [r3, #0]
 800160e:	2301      	movs	r3, #1
 8001610:	001d      	movs	r5, r3
 8001612:	408d      	lsls	r5, r1
 8001614:	0029      	movs	r1, r5
 8001616:	6854      	ldr	r4, [r2, #4]
 8001618:	4321      	orrs	r1, r4
 800161a:	6051      	str	r1, [r2, #4]
 800161c:	1d82      	adds	r2, r0, #6
 800161e:	63c3      	str	r3, [r0, #60]	; 0x3c
 8001620:	77d3      	strb	r3, [r2, #31]
 8001622:	2200      	movs	r2, #0
 8001624:	1d43      	adds	r3, r0, #5
 8001626:	77da      	strb	r2, [r3, #31]
 8001628:	6b43      	ldr	r3, [r0, #52]	; 0x34
 800162a:	e7e2      	b.n	80015f2 <HAL_DMA_IRQHandler+0x6a>
 800162c:	40020000 	.word	0x40020000

08001630 <HAL_GPIO_Init>:
 8001630:	2300      	movs	r3, #0
 8001632:	b5f0      	push	{r4, r5, r6, r7, lr}
 8001634:	b085      	sub	sp, #20
 8001636:	680a      	ldr	r2, [r1, #0]
 8001638:	0014      	movs	r4, r2
 800163a:	40dc      	lsrs	r4, r3
 800163c:	d101      	bne.n	8001642 <HAL_GPIO_Init+0x12>
 800163e:	b005      	add	sp, #20
 8001640:	bdf0      	pop	{r4, r5, r6, r7, pc}
 8001642:	2401      	movs	r4, #1
 8001644:	409c      	lsls	r4, r3
 8001646:	9402      	str	r4, [sp, #8]
 8001648:	4014      	ands	r4, r2
 800164a:	9401      	str	r4, [sp, #4]
 800164c:	9c02      	ldr	r4, [sp, #8]
 800164e:	4222      	tst	r2, r4
 8001650:	d100      	bne.n	8001654 <HAL_GPIO_Init+0x24>
 8001652:	e090      	b.n	8001776 <HAL_GPIO_Init+0x146>
 8001654:	684a      	ldr	r2, [r1, #4]
 8001656:	0015      	movs	r5, r2
 8001658:	4694      	mov	ip, r2
 800165a:	2210      	movs	r2, #16
 800165c:	4395      	bics	r5, r2
 800165e:	2d02      	cmp	r5, #2
 8001660:	d111      	bne.n	8001686 <HAL_GPIO_Init+0x56>
 8001662:	270f      	movs	r7, #15
 8001664:	08da      	lsrs	r2, r3, #3
 8001666:	2407      	movs	r4, #7
 8001668:	0092      	lsls	r2, r2, #2
 800166a:	1882      	adds	r2, r0, r2
 800166c:	6a16      	ldr	r6, [r2, #32]
 800166e:	9203      	str	r2, [sp, #12]
 8001670:	003a      	movs	r2, r7
 8001672:	401c      	ands	r4, r3
 8001674:	00a4      	lsls	r4, r4, #2
 8001676:	40a2      	lsls	r2, r4
 8001678:	4396      	bics	r6, r2
 800167a:	690a      	ldr	r2, [r1, #16]
 800167c:	4017      	ands	r7, r2
 800167e:	40a7      	lsls	r7, r4
 8001680:	9a03      	ldr	r2, [sp, #12]
 8001682:	4337      	orrs	r7, r6
 8001684:	6217      	str	r7, [r2, #32]
 8001686:	2203      	movs	r2, #3
 8001688:	005c      	lsls	r4, r3, #1
 800168a:	40a2      	lsls	r2, r4
 800168c:	6806      	ldr	r6, [r0, #0]
 800168e:	43d7      	mvns	r7, r2
 8001690:	4396      	bics	r6, r2
 8001692:	9603      	str	r6, [sp, #12]
 8001694:	4662      	mov	r2, ip
 8001696:	2603      	movs	r6, #3
 8001698:	4032      	ands	r2, r6
 800169a:	40a2      	lsls	r2, r4
 800169c:	9e03      	ldr	r6, [sp, #12]
 800169e:	3d01      	subs	r5, #1
 80016a0:	4332      	orrs	r2, r6
 80016a2:	6002      	str	r2, [r0, #0]
 80016a4:	2d01      	cmp	r5, #1
 80016a6:	d80f      	bhi.n	80016c8 <HAL_GPIO_Init+0x98>
 80016a8:	68ca      	ldr	r2, [r1, #12]
 80016aa:	6885      	ldr	r5, [r0, #8]
 80016ac:	40a2      	lsls	r2, r4
 80016ae:	403d      	ands	r5, r7
 80016b0:	432a      	orrs	r2, r5
 80016b2:	6082      	str	r2, [r0, #8]
 80016b4:	6845      	ldr	r5, [r0, #4]
 80016b6:	9a02      	ldr	r2, [sp, #8]
 80016b8:	2601      	movs	r6, #1
 80016ba:	4395      	bics	r5, r2
 80016bc:	4662      	mov	r2, ip
 80016be:	0912      	lsrs	r2, r2, #4
 80016c0:	4032      	ands	r2, r6
 80016c2:	409a      	lsls	r2, r3
 80016c4:	432a      	orrs	r2, r5
 80016c6:	6042      	str	r2, [r0, #4]
 80016c8:	4662      	mov	r2, ip
 80016ca:	2a03      	cmp	r2, #3
 80016cc:	d053      	beq.n	8001776 <HAL_GPIO_Init+0x146>
 80016ce:	68c2      	ldr	r2, [r0, #12]
 80016d0:	403a      	ands	r2, r7
 80016d2:	688f      	ldr	r7, [r1, #8]
 80016d4:	40a7      	lsls	r7, r4
 80016d6:	2480      	movs	r4, #128	; 0x80
 80016d8:	433a      	orrs	r2, r7
 80016da:	60c2      	str	r2, [r0, #12]
 80016dc:	4662      	mov	r2, ip
 80016de:	0564      	lsls	r4, r4, #21
 80016e0:	4222      	tst	r2, r4
 80016e2:	d048      	beq.n	8001776 <HAL_GPIO_Init+0x146>
 80016e4:	4a25      	ldr	r2, [pc, #148]	; (800177c <HAL_GPIO_Init+0x14c>)
 80016e6:	2503      	movs	r5, #3
 80016e8:	089c      	lsrs	r4, r3, #2
 80016ea:	00a4      	lsls	r4, r4, #2
 80016ec:	18a4      	adds	r4, r4, r2
 80016ee:	220f      	movs	r2, #15
 80016f0:	401d      	ands	r5, r3
 80016f2:	00ed      	lsls	r5, r5, #3
 80016f4:	40aa      	lsls	r2, r5
 80016f6:	27a0      	movs	r7, #160	; 0xa0
 80016f8:	6e26      	ldr	r6, [r4, #96]	; 0x60
 80016fa:	05ff      	lsls	r7, r7, #23
 80016fc:	4396      	bics	r6, r2
 80016fe:	2200      	movs	r2, #0
 8001700:	42b8      	cmp	r0, r7
 8001702:	d00c      	beq.n	800171e <HAL_GPIO_Init+0xee>
 8001704:	4f1e      	ldr	r7, [pc, #120]	; (8001780 <HAL_GPIO_Init+0x150>)
 8001706:	3201      	adds	r2, #1
 8001708:	42b8      	cmp	r0, r7
 800170a:	d008      	beq.n	800171e <HAL_GPIO_Init+0xee>
 800170c:	4f1d      	ldr	r7, [pc, #116]	; (8001784 <HAL_GPIO_Init+0x154>)
 800170e:	3201      	adds	r2, #1
 8001710:	42b8      	cmp	r0, r7
 8001712:	d004      	beq.n	800171e <HAL_GPIO_Init+0xee>
 8001714:	4f1c      	ldr	r7, [pc, #112]	; (8001788 <HAL_GPIO_Init+0x158>)
 8001716:	3201      	adds	r2, #1
 8001718:	42b8      	cmp	r0, r7
 800171a:	d000      	beq.n	800171e <HAL_GPIO_Init+0xee>
 800171c:	3202      	adds	r2, #2
 800171e:	40aa      	lsls	r2, r5
 8001720:	4667      	mov	r7, ip
 8001722:	4332      	orrs	r2, r6
 8001724:	6622      	str	r2, [r4, #96]	; 0x60
 8001726:	4a19      	ldr	r2, [pc, #100]	; (800178c <HAL_GPIO_Init+0x15c>)
 8001728:	9c01      	ldr	r4, [sp, #4]
 800172a:	6fd6      	ldr	r6, [r2, #124]	; 0x7c
 800172c:	9d01      	ldr	r5, [sp, #4]
 800172e:	43e4      	mvns	r4, r4
 8001730:	4335      	orrs	r5, r6
 8001732:	03ff      	lsls	r7, r7, #15
 8001734:	d401      	bmi.n	800173a <HAL_GPIO_Init+0x10a>
 8001736:	0035      	movs	r5, r6
 8001738:	4025      	ands	r5, r4
 800173a:	4667      	mov	r7, ip
 800173c:	67d5      	str	r5, [r2, #124]	; 0x7c
 800173e:	4d14      	ldr	r5, [pc, #80]	; (8001790 <HAL_GPIO_Init+0x160>)
 8001740:	9e01      	ldr	r6, [sp, #4]
 8001742:	6fea      	ldr	r2, [r5, #124]	; 0x7c
 8001744:	4316      	orrs	r6, r2
 8001746:	03bf      	lsls	r7, r7, #14
 8001748:	d401      	bmi.n	800174e <HAL_GPIO_Init+0x11e>
 800174a:	4022      	ands	r2, r4
 800174c:	0016      	movs	r6, r2
 800174e:	4667      	mov	r7, ip
 8001750:	4a0a      	ldr	r2, [pc, #40]	; (800177c <HAL_GPIO_Init+0x14c>)
 8001752:	67ee      	str	r6, [r5, #124]	; 0x7c
 8001754:	6816      	ldr	r6, [r2, #0]
 8001756:	9d01      	ldr	r5, [sp, #4]
 8001758:	4335      	orrs	r5, r6
 800175a:	02ff      	lsls	r7, r7, #11
 800175c:	d401      	bmi.n	8001762 <HAL_GPIO_Init+0x132>
 800175e:	0035      	movs	r5, r6
 8001760:	4025      	ands	r5, r4
 8001762:	4667      	mov	r7, ip
 8001764:	6015      	str	r5, [r2, #0]
 8001766:	6855      	ldr	r5, [r2, #4]
 8001768:	9e01      	ldr	r6, [sp, #4]
 800176a:	432e      	orrs	r6, r5
 800176c:	02bf      	lsls	r7, r7, #10
 800176e:	d401      	bmi.n	8001774 <HAL_GPIO_Init+0x144>
 8001770:	4025      	ands	r5, r4
 8001772:	002e      	movs	r6, r5
 8001774:	6056      	str	r6, [r2, #4]
 8001776:	3301      	adds	r3, #1
 8001778:	e75d      	b.n	8001636 <HAL_GPIO_Init+0x6>
 800177a:	46c0      	nop			; (mov r8, r8)
 800177c:	40021800 	.word	0x40021800
 8001780:	50000400 	.word	0x50000400
 8001784:	50000800 	.word	0x50000800
 8001788:	50001400 	.word	0x50001400
 800178c:	40021804 	.word	0x40021804
 8001790:	40021808 	.word	0x40021808

08001794 <HAL_RCC_OscConfig>:
 8001794:	b5f8      	push	{r3, r4, r5, r6, r7, lr}
 8001796:	1e04      	subs	r4, r0, #0
 8001798:	d101      	bne.n	800179e <HAL_RCC_OscConfig+0xa>
 800179a:	2001      	movs	r0, #1
 800179c:	bdf8      	pop	{r3, r4, r5, r6, r7, pc}
 800179e:	6803      	ldr	r3, [r0, #0]
 80017a0:	07db      	lsls	r3, r3, #31
 80017a2:	d40d      	bmi.n	80017c0 <HAL_RCC_OscConfig+0x2c>
 80017a4:	6823      	ldr	r3, [r4, #0]
 80017a6:	079b      	lsls	r3, r3, #30
 80017a8:	d453      	bmi.n	8001852 <HAL_RCC_OscConfig+0xbe>
 80017aa:	6823      	ldr	r3, [r4, #0]
 80017ac:	071b      	lsls	r3, r3, #28
 80017ae:	d500      	bpl.n	80017b2 <HAL_RCC_OscConfig+0x1e>
 80017b0:	e0ad      	b.n	800190e <HAL_RCC_OscConfig+0x17a>
 80017b2:	2104      	movs	r1, #4
 80017b4:	6823      	ldr	r3, [r4, #0]
 80017b6:	420b      	tst	r3, r1
 80017b8:	d000      	beq.n	80017bc <HAL_RCC_OscConfig+0x28>
 80017ba:	e0dd      	b.n	8001978 <HAL_RCC_OscConfig+0x1e4>
 80017bc:	2000      	movs	r0, #0
 80017be:	e7ed      	b.n	800179c <HAL_RCC_OscConfig+0x8>
 80017c0:	2238      	movs	r2, #56	; 0x38
 80017c2:	4d8f      	ldr	r5, [pc, #572]	; (8001a00 <HAL_RCC_OscConfig+0x26c>)
 80017c4:	68ab      	ldr	r3, [r5, #8]
 80017c6:	4013      	ands	r3, r2
 80017c8:	2b08      	cmp	r3, #8
 80017ca:	d106      	bne.n	80017da <HAL_RCC_OscConfig+0x46>
 80017cc:	682b      	ldr	r3, [r5, #0]
 80017ce:	039b      	lsls	r3, r3, #14
 80017d0:	d5e8      	bpl.n	80017a4 <HAL_RCC_OscConfig+0x10>
 80017d2:	6843      	ldr	r3, [r0, #4]
 80017d4:	2b00      	cmp	r3, #0
 80017d6:	d1e5      	bne.n	80017a4 <HAL_RCC_OscConfig+0x10>
 80017d8:	e7df      	b.n	800179a <HAL_RCC_OscConfig+0x6>
 80017da:	2280      	movs	r2, #128	; 0x80
 80017dc:	6843      	ldr	r3, [r0, #4]
 80017de:	0252      	lsls	r2, r2, #9
 80017e0:	4293      	cmp	r3, r2
 80017e2:	d111      	bne.n	8001808 <HAL_RCC_OscConfig+0x74>
 80017e4:	682a      	ldr	r2, [r5, #0]
 80017e6:	4313      	orrs	r3, r2
 80017e8:	602b      	str	r3, [r5, #0]
 80017ea:	f7ff f9db 	bl	8000ba4 <HAL_GetTick>
 80017ee:	2780      	movs	r7, #128	; 0x80
 80017f0:	0006      	movs	r6, r0
 80017f2:	02bf      	lsls	r7, r7, #10
 80017f4:	682b      	ldr	r3, [r5, #0]
 80017f6:	423b      	tst	r3, r7
 80017f8:	d1d4      	bne.n	80017a4 <HAL_RCC_OscConfig+0x10>
 80017fa:	f7ff f9d3 	bl	8000ba4 <HAL_GetTick>
 80017fe:	1b80      	subs	r0, r0, r6
 8001800:	2864      	cmp	r0, #100	; 0x64
 8001802:	d9f7      	bls.n	80017f4 <HAL_RCC_OscConfig+0x60>
 8001804:	2003      	movs	r0, #3
 8001806:	e7c9      	b.n	800179c <HAL_RCC_OscConfig+0x8>
 8001808:	21a0      	movs	r1, #160	; 0xa0
 800180a:	02c9      	lsls	r1, r1, #11
 800180c:	428b      	cmp	r3, r1
 800180e:	d108      	bne.n	8001822 <HAL_RCC_OscConfig+0x8e>
 8001810:	2380      	movs	r3, #128	; 0x80
 8001812:	6829      	ldr	r1, [r5, #0]
 8001814:	02db      	lsls	r3, r3, #11
 8001816:	430b      	orrs	r3, r1
 8001818:	602b      	str	r3, [r5, #0]
 800181a:	682b      	ldr	r3, [r5, #0]
 800181c:	431a      	orrs	r2, r3
 800181e:	602a      	str	r2, [r5, #0]
 8001820:	e7e3      	b.n	80017ea <HAL_RCC_OscConfig+0x56>
 8001822:	682a      	ldr	r2, [r5, #0]
 8001824:	4977      	ldr	r1, [pc, #476]	; (8001a04 <HAL_RCC_OscConfig+0x270>)
 8001826:	400a      	ands	r2, r1
 8001828:	602a      	str	r2, [r5, #0]
 800182a:	682a      	ldr	r2, [r5, #0]
 800182c:	4976      	ldr	r1, [pc, #472]	; (8001a08 <HAL_RCC_OscConfig+0x274>)
 800182e:	400a      	ands	r2, r1
 8001830:	602a      	str	r2, [r5, #0]
 8001832:	2b00      	cmp	r3, #0
 8001834:	d1d9      	bne.n	80017ea <HAL_RCC_OscConfig+0x56>
 8001836:	f7ff f9b5 	bl	8000ba4 <HAL_GetTick>
 800183a:	2780      	movs	r7, #128	; 0x80
 800183c:	0006      	movs	r6, r0
 800183e:	02bf      	lsls	r7, r7, #10
 8001840:	682b      	ldr	r3, [r5, #0]
 8001842:	423b      	tst	r3, r7
 8001844:	d0ae      	beq.n	80017a4 <HAL_RCC_OscConfig+0x10>
 8001846:	f7ff f9ad 	bl	8000ba4 <HAL_GetTick>
 800184a:	1b80      	subs	r0, r0, r6
 800184c:	2864      	cmp	r0, #100	; 0x64
 800184e:	d9f7      	bls.n	8001840 <HAL_RCC_OscConfig+0xac>
 8001850:	e7d8      	b.n	8001804 <HAL_RCC_OscConfig+0x70>
 8001852:	2338      	movs	r3, #56	; 0x38
 8001854:	4d6a      	ldr	r5, [pc, #424]	; (8001a00 <HAL_RCC_OscConfig+0x26c>)
 8001856:	68aa      	ldr	r2, [r5, #8]
 8001858:	421a      	tst	r2, r3
 800185a:	d121      	bne.n	80018a0 <HAL_RCC_OscConfig+0x10c>
 800185c:	682b      	ldr	r3, [r5, #0]
 800185e:	055b      	lsls	r3, r3, #21
 8001860:	d502      	bpl.n	8001868 <HAL_RCC_OscConfig+0xd4>
 8001862:	68e3      	ldr	r3, [r4, #12]
 8001864:	2b00      	cmp	r3, #0
 8001866:	d098      	beq.n	800179a <HAL_RCC_OscConfig+0x6>
 8001868:	686a      	ldr	r2, [r5, #4]
 800186a:	6963      	ldr	r3, [r4, #20]
 800186c:	4967      	ldr	r1, [pc, #412]	; (8001a0c <HAL_RCC_OscConfig+0x278>)
 800186e:	021b      	lsls	r3, r3, #8
 8001870:	400a      	ands	r2, r1
 8001872:	4313      	orrs	r3, r2
 8001874:	606b      	str	r3, [r5, #4]
 8001876:	682b      	ldr	r3, [r5, #0]
 8001878:	4a65      	ldr	r2, [pc, #404]	; (8001a10 <HAL_RCC_OscConfig+0x27c>)
 800187a:	4013      	ands	r3, r2
 800187c:	6922      	ldr	r2, [r4, #16]
 800187e:	4313      	orrs	r3, r2
 8001880:	602b      	str	r3, [r5, #0]
 8001882:	682b      	ldr	r3, [r5, #0]
 8001884:	4a63      	ldr	r2, [pc, #396]	; (8001a14 <HAL_RCC_OscConfig+0x280>)
 8001886:	049b      	lsls	r3, r3, #18
 8001888:	0f5b      	lsrs	r3, r3, #29
 800188a:	40da      	lsrs	r2, r3
 800188c:	0013      	movs	r3, r2
 800188e:	4a62      	ldr	r2, [pc, #392]	; (8001a18 <HAL_RCC_OscConfig+0x284>)
 8001890:	6013      	str	r3, [r2, #0]
 8001892:	4b62      	ldr	r3, [pc, #392]	; (8001a1c <HAL_RCC_OscConfig+0x288>)
 8001894:	6818      	ldr	r0, [r3, #0]
 8001896:	f7ff f945 	bl	8000b24 <HAL_InitTick>
 800189a:	2800      	cmp	r0, #0
 800189c:	d085      	beq.n	80017aa <HAL_RCC_OscConfig+0x16>
 800189e:	e77c      	b.n	800179a <HAL_RCC_OscConfig+0x6>
 80018a0:	68e3      	ldr	r3, [r4, #12]
 80018a2:	2b00      	cmp	r3, #0
 80018a4:	d020      	beq.n	80018e8 <HAL_RCC_OscConfig+0x154>
 80018a6:	682b      	ldr	r3, [r5, #0]
 80018a8:	4a59      	ldr	r2, [pc, #356]	; (8001a10 <HAL_RCC_OscConfig+0x27c>)
 80018aa:	2780      	movs	r7, #128	; 0x80
 80018ac:	4013      	ands	r3, r2
 80018ae:	6922      	ldr	r2, [r4, #16]
 80018b0:	00ff      	lsls	r7, r7, #3
 80018b2:	4313      	orrs	r3, r2
 80018b4:	602b      	str	r3, [r5, #0]
 80018b6:	2380      	movs	r3, #128	; 0x80
 80018b8:	682a      	ldr	r2, [r5, #0]
 80018ba:	005b      	lsls	r3, r3, #1
 80018bc:	4313      	orrs	r3, r2
 80018be:	602b      	str	r3, [r5, #0]
 80018c0:	f7ff f970 	bl	8000ba4 <HAL_GetTick>
 80018c4:	0006      	movs	r6, r0
 80018c6:	682b      	ldr	r3, [r5, #0]
 80018c8:	423b      	tst	r3, r7
 80018ca:	d007      	beq.n	80018dc <HAL_RCC_OscConfig+0x148>
 80018cc:	686a      	ldr	r2, [r5, #4]
 80018ce:	6963      	ldr	r3, [r4, #20]
 80018d0:	494e      	ldr	r1, [pc, #312]	; (8001a0c <HAL_RCC_OscConfig+0x278>)
 80018d2:	021b      	lsls	r3, r3, #8
 80018d4:	400a      	ands	r2, r1
 80018d6:	4313      	orrs	r3, r2
 80018d8:	606b      	str	r3, [r5, #4]
 80018da:	e766      	b.n	80017aa <HAL_RCC_OscConfig+0x16>
 80018dc:	f7ff f962 	bl	8000ba4 <HAL_GetTick>
 80018e0:	1b80      	subs	r0, r0, r6
 80018e2:	2802      	cmp	r0, #2
 80018e4:	d9ef      	bls.n	80018c6 <HAL_RCC_OscConfig+0x132>
 80018e6:	e78d      	b.n	8001804 <HAL_RCC_OscConfig+0x70>
 80018e8:	682b      	ldr	r3, [r5, #0]
 80018ea:	4a4d      	ldr	r2, [pc, #308]	; (8001a20 <HAL_RCC_OscConfig+0x28c>)
 80018ec:	2780      	movs	r7, #128	; 0x80
 80018ee:	4013      	ands	r3, r2
 80018f0:	602b      	str	r3, [r5, #0]
 80018f2:	f7ff f957 	bl	8000ba4 <HAL_GetTick>
 80018f6:	0006      	movs	r6, r0
 80018f8:	00ff      	lsls	r7, r7, #3
 80018fa:	682b      	ldr	r3, [r5, #0]
 80018fc:	423b      	tst	r3, r7
 80018fe:	d100      	bne.n	8001902 <HAL_RCC_OscConfig+0x16e>
 8001900:	e753      	b.n	80017aa <HAL_RCC_OscConfig+0x16>
 8001902:	f7ff f94f 	bl	8000ba4 <HAL_GetTick>
 8001906:	1b80      	subs	r0, r0, r6
 8001908:	2802      	cmp	r0, #2
 800190a:	d9f6      	bls.n	80018fa <HAL_RCC_OscConfig+0x166>
 800190c:	e77a      	b.n	8001804 <HAL_RCC_OscConfig+0x70>
 800190e:	2238      	movs	r2, #56	; 0x38
 8001910:	4d3b      	ldr	r5, [pc, #236]	; (8001a00 <HAL_RCC_OscConfig+0x26c>)
 8001912:	68ab      	ldr	r3, [r5, #8]
 8001914:	4013      	ands	r3, r2
 8001916:	2b18      	cmp	r3, #24
 8001918:	d108      	bne.n	800192c <HAL_RCC_OscConfig+0x198>
 800191a:	6e2b      	ldr	r3, [r5, #96]	; 0x60
 800191c:	079b      	lsls	r3, r3, #30
 800191e:	d400      	bmi.n	8001922 <HAL_RCC_OscConfig+0x18e>
 8001920:	e747      	b.n	80017b2 <HAL_RCC_OscConfig+0x1e>
 8001922:	69a3      	ldr	r3, [r4, #24]
 8001924:	2b00      	cmp	r3, #0
 8001926:	d000      	beq.n	800192a <HAL_RCC_OscConfig+0x196>
 8001928:	e743      	b.n	80017b2 <HAL_RCC_OscConfig+0x1e>
 800192a:	e736      	b.n	800179a <HAL_RCC_OscConfig+0x6>
 800192c:	69a2      	ldr	r2, [r4, #24]
 800192e:	2301      	movs	r3, #1
 8001930:	2a00      	cmp	r2, #0
 8001932:	d010      	beq.n	8001956 <HAL_RCC_OscConfig+0x1c2>
 8001934:	6e2a      	ldr	r2, [r5, #96]	; 0x60
 8001936:	2702      	movs	r7, #2
 8001938:	4313      	orrs	r3, r2
 800193a:	662b      	str	r3, [r5, #96]	; 0x60
 800193c:	f7ff f932 	bl	8000ba4 <HAL_GetTick>
 8001940:	0006      	movs	r6, r0
 8001942:	6e2b      	ldr	r3, [r5, #96]	; 0x60
 8001944:	423b      	tst	r3, r7
 8001946:	d000      	beq.n	800194a <HAL_RCC_OscConfig+0x1b6>
 8001948:	e733      	b.n	80017b2 <HAL_RCC_OscConfig+0x1e>
 800194a:	f7ff f92b 	bl	8000ba4 <HAL_GetTick>
 800194e:	1b80      	subs	r0, r0, r6
 8001950:	2802      	cmp	r0, #2
 8001952:	d9f6      	bls.n	8001942 <HAL_RCC_OscConfig+0x1ae>
 8001954:	e756      	b.n	8001804 <HAL_RCC_OscConfig+0x70>
 8001956:	6e2a      	ldr	r2, [r5, #96]	; 0x60
 8001958:	2702      	movs	r7, #2
 800195a:	439a      	bics	r2, r3
 800195c:	662a      	str	r2, [r5, #96]	; 0x60
 800195e:	f7ff f921 	bl	8000ba4 <HAL_GetTick>
 8001962:	0006      	movs	r6, r0
 8001964:	6e2b      	ldr	r3, [r5, #96]	; 0x60
 8001966:	423b      	tst	r3, r7
 8001968:	d100      	bne.n	800196c <HAL_RCC_OscConfig+0x1d8>
 800196a:	e722      	b.n	80017b2 <HAL_RCC_OscConfig+0x1e>
 800196c:	f7ff f91a 	bl	8000ba4 <HAL_GetTick>
 8001970:	1b80      	subs	r0, r0, r6
 8001972:	2802      	cmp	r0, #2
 8001974:	d9f6      	bls.n	8001964 <HAL_RCC_OscConfig+0x1d0>
 8001976:	e745      	b.n	8001804 <HAL_RCC_OscConfig+0x70>
 8001978:	2238      	movs	r2, #56	; 0x38
 800197a:	4d21      	ldr	r5, [pc, #132]	; (8001a00 <HAL_RCC_OscConfig+0x26c>)
 800197c:	68ab      	ldr	r3, [r5, #8]
 800197e:	4013      	ands	r3, r2
 8001980:	2b20      	cmp	r3, #32
 8001982:	d108      	bne.n	8001996 <HAL_RCC_OscConfig+0x202>
 8001984:	6deb      	ldr	r3, [r5, #92]	; 0x5c
 8001986:	079b      	lsls	r3, r3, #30
 8001988:	d400      	bmi.n	800198c <HAL_RCC_OscConfig+0x1f8>
 800198a:	e717      	b.n	80017bc <HAL_RCC_OscConfig+0x28>
 800198c:	68a0      	ldr	r0, [r4, #8]
 800198e:	4243      	negs	r3, r0
 8001990:	4158      	adcs	r0, r3
 8001992:	b2c0      	uxtb	r0, r0
 8001994:	e702      	b.n	800179c <HAL_RCC_OscConfig+0x8>
 8001996:	68a3      	ldr	r3, [r4, #8]
 8001998:	2b01      	cmp	r3, #1
 800199a:	d111      	bne.n	80019c0 <HAL_RCC_OscConfig+0x22c>
 800199c:	6dea      	ldr	r2, [r5, #92]	; 0x5c
 800199e:	4313      	orrs	r3, r2
 80019a0:	65eb      	str	r3, [r5, #92]	; 0x5c
 80019a2:	f7ff f8ff 	bl	8000ba4 <HAL_GetTick>
 80019a6:	2602      	movs	r6, #2
 80019a8:	0004      	movs	r4, r0
 80019aa:	6deb      	ldr	r3, [r5, #92]	; 0x5c
 80019ac:	4233      	tst	r3, r6
 80019ae:	d000      	beq.n	80019b2 <HAL_RCC_OscConfig+0x21e>
 80019b0:	e704      	b.n	80017bc <HAL_RCC_OscConfig+0x28>
 80019b2:	f7ff f8f7 	bl	8000ba4 <HAL_GetTick>
 80019b6:	4b1b      	ldr	r3, [pc, #108]	; (8001a24 <HAL_RCC_OscConfig+0x290>)
 80019b8:	1b00      	subs	r0, r0, r4
 80019ba:	4298      	cmp	r0, r3
 80019bc:	d9f5      	bls.n	80019aa <HAL_RCC_OscConfig+0x216>
 80019be:	e721      	b.n	8001804 <HAL_RCC_OscConfig+0x70>
 80019c0:	2b05      	cmp	r3, #5
 80019c2:	d105      	bne.n	80019d0 <HAL_RCC_OscConfig+0x23c>
 80019c4:	6deb      	ldr	r3, [r5, #92]	; 0x5c
 80019c6:	4319      	orrs	r1, r3
 80019c8:	65e9      	str	r1, [r5, #92]	; 0x5c
 80019ca:	2301      	movs	r3, #1
 80019cc:	6dea      	ldr	r2, [r5, #92]	; 0x5c
 80019ce:	e7e6      	b.n	800199e <HAL_RCC_OscConfig+0x20a>
 80019d0:	2001      	movs	r0, #1
 80019d2:	6dea      	ldr	r2, [r5, #92]	; 0x5c
 80019d4:	4382      	bics	r2, r0
 80019d6:	65ea      	str	r2, [r5, #92]	; 0x5c
 80019d8:	6dea      	ldr	r2, [r5, #92]	; 0x5c
 80019da:	438a      	bics	r2, r1
 80019dc:	65ea      	str	r2, [r5, #92]	; 0x5c
 80019de:	2b00      	cmp	r3, #0
 80019e0:	d1df      	bne.n	80019a2 <HAL_RCC_OscConfig+0x20e>
 80019e2:	f7ff f8df 	bl	8000ba4 <HAL_GetTick>
 80019e6:	2602      	movs	r6, #2
 80019e8:	0004      	movs	r4, r0
 80019ea:	6deb      	ldr	r3, [r5, #92]	; 0x5c
 80019ec:	4233      	tst	r3, r6
 80019ee:	d100      	bne.n	80019f2 <HAL_RCC_OscConfig+0x25e>
 80019f0:	e6e4      	b.n	80017bc <HAL_RCC_OscConfig+0x28>
 80019f2:	f7ff f8d7 	bl	8000ba4 <HAL_GetTick>
 80019f6:	4b0b      	ldr	r3, [pc, #44]	; (8001a24 <HAL_RCC_OscConfig+0x290>)
 80019f8:	1b00      	subs	r0, r0, r4
 80019fa:	4298      	cmp	r0, r3
 80019fc:	d9f5      	bls.n	80019ea <HAL_RCC_OscConfig+0x256>
 80019fe:	e701      	b.n	8001804 <HAL_RCC_OscConfig+0x70>
 8001a00:	40021000 	.word	0x40021000
 8001a04:	fffeffff 	.word	0xfffeffff
 8001a08:	fffbffff 	.word	0xfffbffff
 8001a0c:	ffff80ff 	.word	0xffff80ff
 8001a10:	ffffc7ff 	.word	0xffffc7ff
 8001a14:	02dc6c00 	.word	0x02dc6c00
 8001a18:	20000000 	.word	0x20000000
 8001a1c:	20000008 	.word	0x20000008
 8001a20:	fffffeff 	.word	0xfffffeff
 8001a24:	00001388 	.word	0x00001388

08001a28 <HAL_RCC_GetSysClockFreq>:
 8001a28:	2238      	movs	r2, #56	; 0x38
 8001a2a:	4b0f      	ldr	r3, [pc, #60]	; (8001a68 <HAL_RCC_GetSysClockFreq+0x40>)
 8001a2c:	6899      	ldr	r1, [r3, #8]
 8001a2e:	4211      	tst	r1, r2
 8001a30:	d105      	bne.n	8001a3e <HAL_RCC_GetSysClockFreq+0x16>
 8001a32:	681b      	ldr	r3, [r3, #0]
 8001a34:	480d      	ldr	r0, [pc, #52]	; (8001a6c <HAL_RCC_GetSysClockFreq+0x44>)
 8001a36:	049b      	lsls	r3, r3, #18
 8001a38:	0f5b      	lsrs	r3, r3, #29
 8001a3a:	40d8      	lsrs	r0, r3
 8001a3c:	4770      	bx	lr
 8001a3e:	6899      	ldr	r1, [r3, #8]
 8001a40:	4011      	ands	r1, r2
 8001a42:	2908      	cmp	r1, #8
 8001a44:	d00b      	beq.n	8001a5e <HAL_RCC_GetSysClockFreq+0x36>
 8001a46:	6899      	ldr	r1, [r3, #8]
 8001a48:	4011      	ands	r1, r2
 8001a4a:	2920      	cmp	r1, #32
 8001a4c:	d009      	beq.n	8001a62 <HAL_RCC_GetSysClockFreq+0x3a>
 8001a4e:	689b      	ldr	r3, [r3, #8]
 8001a50:	2000      	movs	r0, #0
 8001a52:	401a      	ands	r2, r3
 8001a54:	2a18      	cmp	r2, #24
 8001a56:	d1f1      	bne.n	8001a3c <HAL_RCC_GetSysClockFreq+0x14>
 8001a58:	20fa      	movs	r0, #250	; 0xfa
 8001a5a:	01c0      	lsls	r0, r0, #7
 8001a5c:	e7ee      	b.n	8001a3c <HAL_RCC_GetSysClockFreq+0x14>
 8001a5e:	4804      	ldr	r0, [pc, #16]	; (8001a70 <HAL_RCC_GetSysClockFreq+0x48>)
 8001a60:	e7ec      	b.n	8001a3c <HAL_RCC_GetSysClockFreq+0x14>
 8001a62:	2080      	movs	r0, #128	; 0x80
 8001a64:	0200      	lsls	r0, r0, #8
 8001a66:	e7e9      	b.n	8001a3c <HAL_RCC_GetSysClockFreq+0x14>
 8001a68:	40021000 	.word	0x40021000
 8001a6c:	02dc6c00 	.word	0x02dc6c00
 8001a70:	01e84800 	.word	0x01e84800

08001a74 <HAL_RCC_ClockConfig>:
 8001a74:	b5f7      	push	{r0, r1, r2, r4, r5, r6, r7, lr}
 8001a76:	0004      	movs	r4, r0
 8001a78:	000d      	movs	r5, r1
 8001a7a:	2800      	cmp	r0, #0
 8001a7c:	d101      	bne.n	8001a82 <HAL_RCC_ClockConfig+0xe>
 8001a7e:	2001      	movs	r0, #1
 8001a80:	bdfe      	pop	{r1, r2, r3, r4, r5, r6, r7, pc}
 8001a82:	2707      	movs	r7, #7
 8001a84:	4e4b      	ldr	r6, [pc, #300]	; (8001bb4 <HAL_RCC_ClockConfig+0x140>)
 8001a86:	6833      	ldr	r3, [r6, #0]
 8001a88:	403b      	ands	r3, r7
 8001a8a:	428b      	cmp	r3, r1
 8001a8c:	d32a      	bcc.n	8001ae4 <HAL_RCC_ClockConfig+0x70>
 8001a8e:	6821      	ldr	r1, [r4, #0]
 8001a90:	078b      	lsls	r3, r1, #30
 8001a92:	d43b      	bmi.n	8001b0c <HAL_RCC_ClockConfig+0x98>
 8001a94:	07cb      	lsls	r3, r1, #31
 8001a96:	d44a      	bmi.n	8001b2e <HAL_RCC_ClockConfig+0xba>
 8001a98:	2707      	movs	r7, #7
 8001a9a:	6833      	ldr	r3, [r6, #0]
 8001a9c:	403b      	ands	r3, r7
 8001a9e:	42ab      	cmp	r3, r5
 8001aa0:	d90a      	bls.n	8001ab8 <HAL_RCC_ClockConfig+0x44>
 8001aa2:	6833      	ldr	r3, [r6, #0]
 8001aa4:	43bb      	bics	r3, r7
 8001aa6:	432b      	orrs	r3, r5
 8001aa8:	6033      	str	r3, [r6, #0]
 8001aaa:	f7ff f87b 	bl	8000ba4 <HAL_GetTick>
 8001aae:	9001      	str	r0, [sp, #4]
 8001ab0:	6833      	ldr	r3, [r6, #0]
 8001ab2:	403b      	ands	r3, r7
 8001ab4:	42ab      	cmp	r3, r5
 8001ab6:	d16d      	bne.n	8001b94 <HAL_RCC_ClockConfig+0x120>
 8001ab8:	6823      	ldr	r3, [r4, #0]
 8001aba:	4d3f      	ldr	r5, [pc, #252]	; (8001bb8 <HAL_RCC_ClockConfig+0x144>)
 8001abc:	075b      	lsls	r3, r3, #29
 8001abe:	d471      	bmi.n	8001ba4 <HAL_RCC_ClockConfig+0x130>
 8001ac0:	f7ff ffb2 	bl	8001a28 <HAL_RCC_GetSysClockFreq>
 8001ac4:	68ab      	ldr	r3, [r5, #8]
 8001ac6:	4a3d      	ldr	r2, [pc, #244]	; (8001bbc <HAL_RCC_ClockConfig+0x148>)
 8001ac8:	051b      	lsls	r3, r3, #20
 8001aca:	0f1b      	lsrs	r3, r3, #28
 8001acc:	009b      	lsls	r3, r3, #2
 8001ace:	589b      	ldr	r3, [r3, r2]
 8001ad0:	221f      	movs	r2, #31
 8001ad2:	4013      	ands	r3, r2
 8001ad4:	40d8      	lsrs	r0, r3
 8001ad6:	4b3a      	ldr	r3, [pc, #232]	; (8001bc0 <HAL_RCC_ClockConfig+0x14c>)
 8001ad8:	6018      	str	r0, [r3, #0]
 8001ada:	4b3a      	ldr	r3, [pc, #232]	; (8001bc4 <HAL_RCC_ClockConfig+0x150>)
 8001adc:	6818      	ldr	r0, [r3, #0]
 8001ade:	f7ff f821 	bl	8000b24 <HAL_InitTick>
 8001ae2:	e7cd      	b.n	8001a80 <HAL_RCC_ClockConfig+0xc>
 8001ae4:	6833      	ldr	r3, [r6, #0]
 8001ae6:	43bb      	bics	r3, r7
 8001ae8:	430b      	orrs	r3, r1
 8001aea:	6033      	str	r3, [r6, #0]
 8001aec:	f7ff f85a 	bl	8000ba4 <HAL_GetTick>
 8001af0:	9001      	str	r0, [sp, #4]
 8001af2:	6833      	ldr	r3, [r6, #0]
 8001af4:	403b      	ands	r3, r7
 8001af6:	42ab      	cmp	r3, r5
 8001af8:	d0c9      	beq.n	8001a8e <HAL_RCC_ClockConfig+0x1a>
 8001afa:	f7ff f853 	bl	8000ba4 <HAL_GetTick>
 8001afe:	9b01      	ldr	r3, [sp, #4]
 8001b00:	1ac0      	subs	r0, r0, r3
 8001b02:	4b31      	ldr	r3, [pc, #196]	; (8001bc8 <HAL_RCC_ClockConfig+0x154>)
 8001b04:	4298      	cmp	r0, r3
 8001b06:	d9f4      	bls.n	8001af2 <HAL_RCC_ClockConfig+0x7e>
 8001b08:	2003      	movs	r0, #3
 8001b0a:	e7b9      	b.n	8001a80 <HAL_RCC_ClockConfig+0xc>
 8001b0c:	4a2a      	ldr	r2, [pc, #168]	; (8001bb8 <HAL_RCC_ClockConfig+0x144>)
 8001b0e:	074b      	lsls	r3, r1, #29
 8001b10:	d506      	bpl.n	8001b20 <HAL_RCC_ClockConfig+0xac>
 8001b12:	6893      	ldr	r3, [r2, #8]
 8001b14:	482d      	ldr	r0, [pc, #180]	; (8001bcc <HAL_RCC_ClockConfig+0x158>)
 8001b16:	4018      	ands	r0, r3
 8001b18:	23b0      	movs	r3, #176	; 0xb0
 8001b1a:	011b      	lsls	r3, r3, #4
 8001b1c:	4303      	orrs	r3, r0
 8001b1e:	6093      	str	r3, [r2, #8]
 8001b20:	6893      	ldr	r3, [r2, #8]
 8001b22:	482b      	ldr	r0, [pc, #172]	; (8001bd0 <HAL_RCC_ClockConfig+0x15c>)
 8001b24:	4003      	ands	r3, r0
 8001b26:	68e0      	ldr	r0, [r4, #12]
 8001b28:	4303      	orrs	r3, r0
 8001b2a:	6093      	str	r3, [r2, #8]
 8001b2c:	e7b2      	b.n	8001a94 <HAL_RCC_ClockConfig+0x20>
 8001b2e:	221c      	movs	r2, #28
 8001b30:	4f21      	ldr	r7, [pc, #132]	; (8001bb8 <HAL_RCC_ClockConfig+0x144>)
 8001b32:	683b      	ldr	r3, [r7, #0]
 8001b34:	4393      	bics	r3, r2
 8001b36:	68a2      	ldr	r2, [r4, #8]
 8001b38:	4313      	orrs	r3, r2
 8001b3a:	603b      	str	r3, [r7, #0]
 8001b3c:	6862      	ldr	r2, [r4, #4]
 8001b3e:	2a01      	cmp	r2, #1
 8001b40:	d119      	bne.n	8001b76 <HAL_RCC_ClockConfig+0x102>
 8001b42:	683b      	ldr	r3, [r7, #0]
 8001b44:	039b      	lsls	r3, r3, #14
 8001b46:	d59a      	bpl.n	8001a7e <HAL_RCC_ClockConfig+0xa>
 8001b48:	2107      	movs	r1, #7
 8001b4a:	68bb      	ldr	r3, [r7, #8]
 8001b4c:	438b      	bics	r3, r1
 8001b4e:	4313      	orrs	r3, r2
 8001b50:	60bb      	str	r3, [r7, #8]
 8001b52:	f7ff f827 	bl	8000ba4 <HAL_GetTick>
 8001b56:	9001      	str	r0, [sp, #4]
 8001b58:	2338      	movs	r3, #56	; 0x38
 8001b5a:	68ba      	ldr	r2, [r7, #8]
 8001b5c:	401a      	ands	r2, r3
 8001b5e:	6863      	ldr	r3, [r4, #4]
 8001b60:	00db      	lsls	r3, r3, #3
 8001b62:	429a      	cmp	r2, r3
 8001b64:	d098      	beq.n	8001a98 <HAL_RCC_ClockConfig+0x24>
 8001b66:	f7ff f81d 	bl	8000ba4 <HAL_GetTick>
 8001b6a:	9b01      	ldr	r3, [sp, #4]
 8001b6c:	1ac0      	subs	r0, r0, r3
 8001b6e:	4b16      	ldr	r3, [pc, #88]	; (8001bc8 <HAL_RCC_ClockConfig+0x154>)
 8001b70:	4298      	cmp	r0, r3
 8001b72:	d9f1      	bls.n	8001b58 <HAL_RCC_ClockConfig+0xe4>
 8001b74:	e7c8      	b.n	8001b08 <HAL_RCC_ClockConfig+0x94>
 8001b76:	2a00      	cmp	r2, #0
 8001b78:	d103      	bne.n	8001b82 <HAL_RCC_ClockConfig+0x10e>
 8001b7a:	683b      	ldr	r3, [r7, #0]
 8001b7c:	055b      	lsls	r3, r3, #21
 8001b7e:	d4e3      	bmi.n	8001b48 <HAL_RCC_ClockConfig+0xd4>
 8001b80:	e77d      	b.n	8001a7e <HAL_RCC_ClockConfig+0xa>
 8001b82:	2302      	movs	r3, #2
 8001b84:	2a03      	cmp	r2, #3
 8001b86:	d103      	bne.n	8001b90 <HAL_RCC_ClockConfig+0x11c>
 8001b88:	6e39      	ldr	r1, [r7, #96]	; 0x60
 8001b8a:	4219      	tst	r1, r3
 8001b8c:	d1dc      	bne.n	8001b48 <HAL_RCC_ClockConfig+0xd4>
 8001b8e:	e776      	b.n	8001a7e <HAL_RCC_ClockConfig+0xa>
 8001b90:	6df9      	ldr	r1, [r7, #92]	; 0x5c
 8001b92:	e7fa      	b.n	8001b8a <HAL_RCC_ClockConfig+0x116>
 8001b94:	f7ff f806 	bl	8000ba4 <HAL_GetTick>
 8001b98:	9b01      	ldr	r3, [sp, #4]
 8001b9a:	1ac0      	subs	r0, r0, r3
 8001b9c:	4b0a      	ldr	r3, [pc, #40]	; (8001bc8 <HAL_RCC_ClockConfig+0x154>)
 8001b9e:	4298      	cmp	r0, r3
 8001ba0:	d986      	bls.n	8001ab0 <HAL_RCC_ClockConfig+0x3c>
 8001ba2:	e7b1      	b.n	8001b08 <HAL_RCC_ClockConfig+0x94>
 8001ba4:	68ab      	ldr	r3, [r5, #8]
 8001ba6:	4a0b      	ldr	r2, [pc, #44]	; (8001bd4 <HAL_RCC_ClockConfig+0x160>)
 8001ba8:	4013      	ands	r3, r2
 8001baa:	6922      	ldr	r2, [r4, #16]
 8001bac:	4313      	orrs	r3, r2
 8001bae:	60ab      	str	r3, [r5, #8]
 8001bb0:	e786      	b.n	8001ac0 <HAL_RCC_ClockConfig+0x4c>
 8001bb2:	46c0      	nop			; (mov r8, r8)
 8001bb4:	40022000 	.word	0x40022000
 8001bb8:	40021000 	.word	0x40021000
 8001bbc:	08002f64 	.word	0x08002f64
 8001bc0:	20000000 	.word	0x20000000
 8001bc4:	20000008 	.word	0x20000008
 8001bc8:	00001388 	.word	0x00001388
 8001bcc:	ffff84ff 	.word	0xffff84ff
 8001bd0:	fffff0ff 	.word	0xfffff0ff
 8001bd4:	ffff8fff 	.word	0xffff8fff

08001bd8 <HAL_RCC_GetPCLK1Freq>:
 8001bd8:	4b06      	ldr	r3, [pc, #24]	; (8001bf4 <HAL_RCC_GetPCLK1Freq+0x1c>)
 8001bda:	4a07      	ldr	r2, [pc, #28]	; (8001bf8 <HAL_RCC_GetPCLK1Freq+0x20>)
 8001bdc:	689b      	ldr	r3, [r3, #8]
 8001bde:	045b      	lsls	r3, r3, #17
 8001be0:	0f5b      	lsrs	r3, r3, #29
 8001be2:	009b      	lsls	r3, r3, #2
 8001be4:	589b      	ldr	r3, [r3, r2]
 8001be6:	221f      	movs	r2, #31
 8001be8:	4013      	ands	r3, r2
 8001bea:	4a04      	ldr	r2, [pc, #16]	; (8001bfc <HAL_RCC_GetPCLK1Freq+0x24>)
 8001bec:	6810      	ldr	r0, [r2, #0]
 8001bee:	40d8      	lsrs	r0, r3
 8001bf0:	4770      	bx	lr
 8001bf2:	46c0      	nop			; (mov r8, r8)
 8001bf4:	40021000 	.word	0x40021000
 8001bf8:	08002fa4 	.word	0x08002fa4
 8001bfc:	20000000 	.word	0x20000000

08001c00 <HAL_RCCEx_PeriphCLKConfig>:
 8001c00:	b5f0      	push	{r4, r5, r6, r7, lr}
 8001c02:	0005      	movs	r5, r0
 8001c04:	682b      	ldr	r3, [r5, #0]
 8001c06:	2000      	movs	r0, #0
 8001c08:	b085      	sub	sp, #20
 8001c0a:	039b      	lsls	r3, r3, #14
 8001c0c:	d522      	bpl.n	8001c54 <HAL_RCCEx_PeriphCLKConfig+0x54>
 8001c0e:	2280      	movs	r2, #128	; 0x80
 8001c10:	4c39      	ldr	r4, [pc, #228]	; (8001cf8 <HAL_RCCEx_PeriphCLKConfig+0xf8>)
 8001c12:	0552      	lsls	r2, r2, #21
 8001c14:	6be3      	ldr	r3, [r4, #60]	; 0x3c
 8001c16:	0006      	movs	r6, r0
 8001c18:	4213      	tst	r3, r2
 8001c1a:	d107      	bne.n	8001c2c <HAL_RCCEx_PeriphCLKConfig+0x2c>
 8001c1c:	6be3      	ldr	r3, [r4, #60]	; 0x3c
 8001c1e:	3601      	adds	r6, #1
 8001c20:	4313      	orrs	r3, r2
 8001c22:	63e3      	str	r3, [r4, #60]	; 0x3c
 8001c24:	6be3      	ldr	r3, [r4, #60]	; 0x3c
 8001c26:	4013      	ands	r3, r2
 8001c28:	9303      	str	r3, [sp, #12]
 8001c2a:	9b03      	ldr	r3, [sp, #12]
 8001c2c:	6de2      	ldr	r2, [r4, #92]	; 0x5c
 8001c2e:	23c0      	movs	r3, #192	; 0xc0
 8001c30:	0011      	movs	r1, r2
 8001c32:	009b      	lsls	r3, r3, #2
 8001c34:	4f31      	ldr	r7, [pc, #196]	; (8001cfc <HAL_RCCEx_PeriphCLKConfig+0xfc>)
 8001c36:	4019      	ands	r1, r3
 8001c38:	421a      	tst	r2, r3
 8001c3a:	d13b      	bne.n	8001cb4 <HAL_RCCEx_PeriphCLKConfig+0xb4>
 8001c3c:	2000      	movs	r0, #0
 8001c3e:	6de3      	ldr	r3, [r4, #92]	; 0x5c
 8001c40:	401f      	ands	r7, r3
 8001c42:	69ab      	ldr	r3, [r5, #24]
 8001c44:	431f      	orrs	r7, r3
 8001c46:	65e7      	str	r7, [r4, #92]	; 0x5c
 8001c48:	2e01      	cmp	r6, #1
 8001c4a:	d103      	bne.n	8001c54 <HAL_RCCEx_PeriphCLKConfig+0x54>
 8001c4c:	6be3      	ldr	r3, [r4, #60]	; 0x3c
 8001c4e:	4a2c      	ldr	r2, [pc, #176]	; (8001d00 <HAL_RCCEx_PeriphCLKConfig+0x100>)
 8001c50:	4013      	ands	r3, r2
 8001c52:	63e3      	str	r3, [r4, #60]	; 0x3c
 8001c54:	682a      	ldr	r2, [r5, #0]
 8001c56:	07d3      	lsls	r3, r2, #31
 8001c58:	d506      	bpl.n	8001c68 <HAL_RCCEx_PeriphCLKConfig+0x68>
 8001c5a:	2403      	movs	r4, #3
 8001c5c:	4926      	ldr	r1, [pc, #152]	; (8001cf8 <HAL_RCCEx_PeriphCLKConfig+0xf8>)
 8001c5e:	6d4b      	ldr	r3, [r1, #84]	; 0x54
 8001c60:	43a3      	bics	r3, r4
 8001c62:	68ac      	ldr	r4, [r5, #8]
 8001c64:	4323      	orrs	r3, r4
 8001c66:	654b      	str	r3, [r1, #84]	; 0x54
 8001c68:	0653      	lsls	r3, r2, #25
 8001c6a:	d506      	bpl.n	8001c7a <HAL_RCCEx_PeriphCLKConfig+0x7a>
 8001c6c:	4922      	ldr	r1, [pc, #136]	; (8001cf8 <HAL_RCCEx_PeriphCLKConfig+0xf8>)
 8001c6e:	4c25      	ldr	r4, [pc, #148]	; (8001d04 <HAL_RCCEx_PeriphCLKConfig+0x104>)
 8001c70:	6d4b      	ldr	r3, [r1, #84]	; 0x54
 8001c72:	4023      	ands	r3, r4
 8001c74:	68ec      	ldr	r4, [r5, #12]
 8001c76:	4323      	orrs	r3, r4
 8001c78:	654b      	str	r3, [r1, #84]	; 0x54
 8001c7a:	0453      	lsls	r3, r2, #17
 8001c7c:	d506      	bpl.n	8001c8c <HAL_RCCEx_PeriphCLKConfig+0x8c>
 8001c7e:	491e      	ldr	r1, [pc, #120]	; (8001cf8 <HAL_RCCEx_PeriphCLKConfig+0xf8>)
 8001c80:	696c      	ldr	r4, [r5, #20]
 8001c82:	6d4b      	ldr	r3, [r1, #84]	; 0x54
 8001c84:	009b      	lsls	r3, r3, #2
 8001c86:	089b      	lsrs	r3, r3, #2
 8001c88:	4323      	orrs	r3, r4
 8001c8a:	654b      	str	r3, [r1, #84]	; 0x54
 8001c8c:	0513      	lsls	r3, r2, #20
 8001c8e:	d506      	bpl.n	8001c9e <HAL_RCCEx_PeriphCLKConfig+0x9e>
 8001c90:	4919      	ldr	r1, [pc, #100]	; (8001cf8 <HAL_RCCEx_PeriphCLKConfig+0xf8>)
 8001c92:	4c1d      	ldr	r4, [pc, #116]	; (8001d08 <HAL_RCCEx_PeriphCLKConfig+0x108>)
 8001c94:	6d4b      	ldr	r3, [r1, #84]	; 0x54
 8001c96:	4023      	ands	r3, r4
 8001c98:	692c      	ldr	r4, [r5, #16]
 8001c9a:	4323      	orrs	r3, r4
 8001c9c:	654b      	str	r3, [r1, #84]	; 0x54
 8001c9e:	2a00      	cmp	r2, #0
 8001ca0:	da06      	bge.n	8001cb0 <HAL_RCCEx_PeriphCLKConfig+0xb0>
 8001ca2:	21e0      	movs	r1, #224	; 0xe0
 8001ca4:	4a14      	ldr	r2, [pc, #80]	; (8001cf8 <HAL_RCCEx_PeriphCLKConfig+0xf8>)
 8001ca6:	6813      	ldr	r3, [r2, #0]
 8001ca8:	438b      	bics	r3, r1
 8001caa:	6869      	ldr	r1, [r5, #4]
 8001cac:	430b      	orrs	r3, r1
 8001cae:	6013      	str	r3, [r2, #0]
 8001cb0:	b005      	add	sp, #20
 8001cb2:	bdf0      	pop	{r4, r5, r6, r7, pc}
 8001cb4:	69ab      	ldr	r3, [r5, #24]
 8001cb6:	4299      	cmp	r1, r3
 8001cb8:	d0c0      	beq.n	8001c3c <HAL_RCCEx_PeriphCLKConfig+0x3c>
 8001cba:	2380      	movs	r3, #128	; 0x80
 8001cbc:	6de2      	ldr	r2, [r4, #92]	; 0x5c
 8001cbe:	6de0      	ldr	r0, [r4, #92]	; 0x5c
 8001cc0:	0011      	movs	r1, r2
 8001cc2:	025b      	lsls	r3, r3, #9
 8001cc4:	4303      	orrs	r3, r0
 8001cc6:	65e3      	str	r3, [r4, #92]	; 0x5c
 8001cc8:	6de3      	ldr	r3, [r4, #92]	; 0x5c
 8001cca:	4810      	ldr	r0, [pc, #64]	; (8001d0c <HAL_RCCEx_PeriphCLKConfig+0x10c>)
 8001ccc:	4039      	ands	r1, r7
 8001cce:	4003      	ands	r3, r0
 8001cd0:	65e3      	str	r3, [r4, #92]	; 0x5c
 8001cd2:	65e1      	str	r1, [r4, #92]	; 0x5c
 8001cd4:	07d3      	lsls	r3, r2, #31
 8001cd6:	d5b1      	bpl.n	8001c3c <HAL_RCCEx_PeriphCLKConfig+0x3c>
 8001cd8:	f7fe ff64 	bl	8000ba4 <HAL_GetTick>
 8001cdc:	9001      	str	r0, [sp, #4]
 8001cde:	2202      	movs	r2, #2
 8001ce0:	6de3      	ldr	r3, [r4, #92]	; 0x5c
 8001ce2:	4213      	tst	r3, r2
 8001ce4:	d1aa      	bne.n	8001c3c <HAL_RCCEx_PeriphCLKConfig+0x3c>
 8001ce6:	f7fe ff5d 	bl	8000ba4 <HAL_GetTick>
 8001cea:	9b01      	ldr	r3, [sp, #4]
 8001cec:	1ac0      	subs	r0, r0, r3
 8001cee:	4b08      	ldr	r3, [pc, #32]	; (8001d10 <HAL_RCCEx_PeriphCLKConfig+0x110>)
 8001cf0:	4298      	cmp	r0, r3
 8001cf2:	d9f4      	bls.n	8001cde <HAL_RCCEx_PeriphCLKConfig+0xde>
 8001cf4:	2003      	movs	r0, #3
 8001cf6:	e7a7      	b.n	8001c48 <HAL_RCCEx_PeriphCLKConfig+0x48>
 8001cf8:	40021000 	.word	0x40021000
 8001cfc:	fffffcff 	.word	0xfffffcff
 8001d00:	efffffff 	.word	0xefffffff
 8001d04:	ffffcfff 	.word	0xffffcfff
 8001d08:	ffff3fff 	.word	0xffff3fff
 8001d0c:	fffeffff 	.word	0xfffeffff
 8001d10:	00001388 	.word	0x00001388

08001d14 <TIM_OC1_SetConfig>:
 8001d14:	2201      	movs	r2, #1
 8001d16:	6a03      	ldr	r3, [r0, #32]
 8001d18:	b570      	push	{r4, r5, r6, lr}
 8001d1a:	4393      	bics	r3, r2
 8001d1c:	6203      	str	r3, [r0, #32]
 8001d1e:	6a03      	ldr	r3, [r0, #32]
 8001d20:	4a16      	ldr	r2, [pc, #88]	; (8001d7c <TIM_OC1_SetConfig+0x68>)
 8001d22:	6844      	ldr	r4, [r0, #4]
 8001d24:	6985      	ldr	r5, [r0, #24]
 8001d26:	4015      	ands	r5, r2
 8001d28:	680a      	ldr	r2, [r1, #0]
 8001d2a:	4315      	orrs	r5, r2
 8001d2c:	2202      	movs	r2, #2
 8001d2e:	4393      	bics	r3, r2
 8001d30:	688a      	ldr	r2, [r1, #8]
 8001d32:	4313      	orrs	r3, r2
 8001d34:	4a12      	ldr	r2, [pc, #72]	; (8001d80 <TIM_OC1_SetConfig+0x6c>)
 8001d36:	4290      	cmp	r0, r2
 8001d38:	d005      	beq.n	8001d46 <TIM_OC1_SetConfig+0x32>
 8001d3a:	4e12      	ldr	r6, [pc, #72]	; (8001d84 <TIM_OC1_SetConfig+0x70>)
 8001d3c:	42b0      	cmp	r0, r6
 8001d3e:	d002      	beq.n	8001d46 <TIM_OC1_SetConfig+0x32>
 8001d40:	4e11      	ldr	r6, [pc, #68]	; (8001d88 <TIM_OC1_SetConfig+0x74>)
 8001d42:	42b0      	cmp	r0, r6
 8001d44:	d113      	bne.n	8001d6e <TIM_OC1_SetConfig+0x5a>
 8001d46:	2608      	movs	r6, #8
 8001d48:	43b3      	bics	r3, r6
 8001d4a:	68ce      	ldr	r6, [r1, #12]
 8001d4c:	4333      	orrs	r3, r6
 8001d4e:	2604      	movs	r6, #4
 8001d50:	43b3      	bics	r3, r6
 8001d52:	4290      	cmp	r0, r2
 8001d54:	d005      	beq.n	8001d62 <TIM_OC1_SetConfig+0x4e>
 8001d56:	4a0b      	ldr	r2, [pc, #44]	; (8001d84 <TIM_OC1_SetConfig+0x70>)
 8001d58:	4290      	cmp	r0, r2
 8001d5a:	d002      	beq.n	8001d62 <TIM_OC1_SetConfig+0x4e>
 8001d5c:	4a0a      	ldr	r2, [pc, #40]	; (8001d88 <TIM_OC1_SetConfig+0x74>)
 8001d5e:	4290      	cmp	r0, r2
 8001d60:	d105      	bne.n	8001d6e <TIM_OC1_SetConfig+0x5a>
 8001d62:	4a0a      	ldr	r2, [pc, #40]	; (8001d8c <TIM_OC1_SetConfig+0x78>)
 8001d64:	698e      	ldr	r6, [r1, #24]
 8001d66:	4022      	ands	r2, r4
 8001d68:	694c      	ldr	r4, [r1, #20]
 8001d6a:	4334      	orrs	r4, r6
 8001d6c:	4314      	orrs	r4, r2
 8001d6e:	684a      	ldr	r2, [r1, #4]
 8001d70:	6044      	str	r4, [r0, #4]
 8001d72:	6185      	str	r5, [r0, #24]
 8001d74:	6342      	str	r2, [r0, #52]	; 0x34
 8001d76:	6203      	str	r3, [r0, #32]
 8001d78:	bd70      	pop	{r4, r5, r6, pc}
 8001d7a:	46c0      	nop			; (mov r8, r8)
 8001d7c:	fffeff8c 	.word	0xfffeff8c
 8001d80:	40012c00 	.word	0x40012c00
 8001d84:	40014400 	.word	0x40014400
 8001d88:	40014800 	.word	0x40014800
 8001d8c:	fffffcff 	.word	0xfffffcff

08001d90 <TIM_OC3_SetConfig>:
 8001d90:	6a03      	ldr	r3, [r0, #32]
 8001d92:	4a17      	ldr	r2, [pc, #92]	; (8001df0 <TIM_OC3_SetConfig+0x60>)
 8001d94:	b570      	push	{r4, r5, r6, lr}
 8001d96:	4013      	ands	r3, r2
 8001d98:	6203      	str	r3, [r0, #32]
 8001d9a:	6a03      	ldr	r3, [r0, #32]
 8001d9c:	4d15      	ldr	r5, [pc, #84]	; (8001df4 <TIM_OC3_SetConfig+0x64>)
 8001d9e:	6842      	ldr	r2, [r0, #4]
 8001da0:	69c4      	ldr	r4, [r0, #28]
 8001da2:	402c      	ands	r4, r5
 8001da4:	680d      	ldr	r5, [r1, #0]
 8001da6:	432c      	orrs	r4, r5
 8001da8:	4d13      	ldr	r5, [pc, #76]	; (8001df8 <TIM_OC3_SetConfig+0x68>)
 8001daa:	402b      	ands	r3, r5
 8001dac:	688d      	ldr	r5, [r1, #8]
 8001dae:	022d      	lsls	r5, r5, #8
 8001db0:	432b      	orrs	r3, r5
 8001db2:	4d12      	ldr	r5, [pc, #72]	; (8001dfc <TIM_OC3_SetConfig+0x6c>)
 8001db4:	42a8      	cmp	r0, r5
 8001db6:	d10e      	bne.n	8001dd6 <TIM_OC3_SetConfig+0x46>
 8001db8:	4d11      	ldr	r5, [pc, #68]	; (8001e00 <TIM_OC3_SetConfig+0x70>)
 8001dba:	401d      	ands	r5, r3
 8001dbc:	68cb      	ldr	r3, [r1, #12]
 8001dbe:	021b      	lsls	r3, r3, #8
 8001dc0:	432b      	orrs	r3, r5
 8001dc2:	4d10      	ldr	r5, [pc, #64]	; (8001e04 <TIM_OC3_SetConfig+0x74>)
 8001dc4:	402b      	ands	r3, r5
 8001dc6:	4d10      	ldr	r5, [pc, #64]	; (8001e08 <TIM_OC3_SetConfig+0x78>)
 8001dc8:	694e      	ldr	r6, [r1, #20]
 8001dca:	4015      	ands	r5, r2
 8001dcc:	698a      	ldr	r2, [r1, #24]
 8001dce:	4332      	orrs	r2, r6
 8001dd0:	0112      	lsls	r2, r2, #4
 8001dd2:	432a      	orrs	r2, r5
 8001dd4:	e005      	b.n	8001de2 <TIM_OC3_SetConfig+0x52>
 8001dd6:	4d0d      	ldr	r5, [pc, #52]	; (8001e0c <TIM_OC3_SetConfig+0x7c>)
 8001dd8:	42a8      	cmp	r0, r5
 8001dda:	d0f4      	beq.n	8001dc6 <TIM_OC3_SetConfig+0x36>
 8001ddc:	4d0c      	ldr	r5, [pc, #48]	; (8001e10 <TIM_OC3_SetConfig+0x80>)
 8001dde:	42a8      	cmp	r0, r5
 8001de0:	d0f1      	beq.n	8001dc6 <TIM_OC3_SetConfig+0x36>
 8001de2:	6042      	str	r2, [r0, #4]
 8001de4:	684a      	ldr	r2, [r1, #4]
 8001de6:	61c4      	str	r4, [r0, #28]
 8001de8:	63c2      	str	r2, [r0, #60]	; 0x3c
 8001dea:	6203      	str	r3, [r0, #32]
 8001dec:	bd70      	pop	{r4, r5, r6, pc}
 8001dee:	46c0      	nop			; (mov r8, r8)
 8001df0:	fffffeff 	.word	0xfffffeff
 8001df4:	fffeff8c 	.word	0xfffeff8c
 8001df8:	fffffdff 	.word	0xfffffdff
 8001dfc:	40012c00 	.word	0x40012c00
 8001e00:	fffff7ff 	.word	0xfffff7ff
 8001e04:	fffffbff 	.word	0xfffffbff
 8001e08:	ffffcfff 	.word	0xffffcfff
 8001e0c:	40014400 	.word	0x40014400
 8001e10:	40014800 	.word	0x40014800

08001e14 <TIM_OC4_SetConfig>:
 8001e14:	6a03      	ldr	r3, [r0, #32]
 8001e16:	4a12      	ldr	r2, [pc, #72]	; (8001e60 <TIM_OC4_SetConfig+0x4c>)
 8001e18:	b530      	push	{r4, r5, lr}
 8001e1a:	4013      	ands	r3, r2
 8001e1c:	6203      	str	r3, [r0, #32]
 8001e1e:	6a02      	ldr	r2, [r0, #32]
 8001e20:	4c10      	ldr	r4, [pc, #64]	; (8001e64 <TIM_OC4_SetConfig+0x50>)
 8001e22:	6843      	ldr	r3, [r0, #4]
 8001e24:	69c5      	ldr	r5, [r0, #28]
 8001e26:	4025      	ands	r5, r4
 8001e28:	680c      	ldr	r4, [r1, #0]
 8001e2a:	0224      	lsls	r4, r4, #8
 8001e2c:	4325      	orrs	r5, r4
 8001e2e:	4c0e      	ldr	r4, [pc, #56]	; (8001e68 <TIM_OC4_SetConfig+0x54>)
 8001e30:	4022      	ands	r2, r4
 8001e32:	688c      	ldr	r4, [r1, #8]
 8001e34:	0324      	lsls	r4, r4, #12
 8001e36:	4322      	orrs	r2, r4
 8001e38:	4c0c      	ldr	r4, [pc, #48]	; (8001e6c <TIM_OC4_SetConfig+0x58>)
 8001e3a:	42a0      	cmp	r0, r4
 8001e3c:	d005      	beq.n	8001e4a <TIM_OC4_SetConfig+0x36>
 8001e3e:	4c0c      	ldr	r4, [pc, #48]	; (8001e70 <TIM_OC4_SetConfig+0x5c>)
 8001e40:	42a0      	cmp	r0, r4
 8001e42:	d002      	beq.n	8001e4a <TIM_OC4_SetConfig+0x36>
 8001e44:	4c0b      	ldr	r4, [pc, #44]	; (8001e74 <TIM_OC4_SetConfig+0x60>)
 8001e46:	42a0      	cmp	r0, r4
 8001e48:	d104      	bne.n	8001e54 <TIM_OC4_SetConfig+0x40>
 8001e4a:	4c0b      	ldr	r4, [pc, #44]	; (8001e78 <TIM_OC4_SetConfig+0x64>)
 8001e4c:	4023      	ands	r3, r4
 8001e4e:	694c      	ldr	r4, [r1, #20]
 8001e50:	01a4      	lsls	r4, r4, #6
 8001e52:	4323      	orrs	r3, r4
 8001e54:	6043      	str	r3, [r0, #4]
 8001e56:	684b      	ldr	r3, [r1, #4]
 8001e58:	61c5      	str	r5, [r0, #28]
 8001e5a:	6403      	str	r3, [r0, #64]	; 0x40
 8001e5c:	6202      	str	r2, [r0, #32]
 8001e5e:	bd30      	pop	{r4, r5, pc}
 8001e60:	ffffefff 	.word	0xffffefff
 8001e64:	feff8cff 	.word	0xfeff8cff
 8001e68:	ffffdfff 	.word	0xffffdfff
 8001e6c:	40012c00 	.word	0x40012c00
 8001e70:	40014400 	.word	0x40014400
 8001e74:	40014800 	.word	0x40014800
 8001e78:	ffffbfff 	.word	0xffffbfff

08001e7c <TIM_OC5_SetConfig>:
 8001e7c:	6a03      	ldr	r3, [r0, #32]
 8001e7e:	b570      	push	{r4, r5, r6, lr}
 8001e80:	4e10      	ldr	r6, [pc, #64]	; (8001ec4 <TIM_OC5_SetConfig+0x48>)
 8001e82:	4c11      	ldr	r4, [pc, #68]	; (8001ec8 <TIM_OC5_SetConfig+0x4c>)
 8001e84:	4033      	ands	r3, r6
 8001e86:	6203      	str	r3, [r0, #32]
 8001e88:	6a02      	ldr	r2, [r0, #32]
 8001e8a:	6843      	ldr	r3, [r0, #4]
 8001e8c:	6d45      	ldr	r5, [r0, #84]	; 0x54
 8001e8e:	4025      	ands	r5, r4
 8001e90:	680c      	ldr	r4, [r1, #0]
 8001e92:	4325      	orrs	r5, r4
 8001e94:	4c0d      	ldr	r4, [pc, #52]	; (8001ecc <TIM_OC5_SetConfig+0x50>)
 8001e96:	4022      	ands	r2, r4
 8001e98:	688c      	ldr	r4, [r1, #8]
 8001e9a:	0424      	lsls	r4, r4, #16
 8001e9c:	4322      	orrs	r2, r4
 8001e9e:	4c0c      	ldr	r4, [pc, #48]	; (8001ed0 <TIM_OC5_SetConfig+0x54>)
 8001ea0:	42a0      	cmp	r0, r4
 8001ea2:	d005      	beq.n	8001eb0 <TIM_OC5_SetConfig+0x34>
 8001ea4:	4c0b      	ldr	r4, [pc, #44]	; (8001ed4 <TIM_OC5_SetConfig+0x58>)
 8001ea6:	42a0      	cmp	r0, r4
 8001ea8:	d002      	beq.n	8001eb0 <TIM_OC5_SetConfig+0x34>
 8001eaa:	4c0b      	ldr	r4, [pc, #44]	; (8001ed8 <TIM_OC5_SetConfig+0x5c>)
 8001eac:	42a0      	cmp	r0, r4
 8001eae:	d103      	bne.n	8001eb8 <TIM_OC5_SetConfig+0x3c>
 8001eb0:	694c      	ldr	r4, [r1, #20]
 8001eb2:	4033      	ands	r3, r6
 8001eb4:	0224      	lsls	r4, r4, #8
 8001eb6:	4323      	orrs	r3, r4
 8001eb8:	6043      	str	r3, [r0, #4]
 8001eba:	684b      	ldr	r3, [r1, #4]
 8001ebc:	6545      	str	r5, [r0, #84]	; 0x54
 8001ebe:	6583      	str	r3, [r0, #88]	; 0x58
 8001ec0:	6202      	str	r2, [r0, #32]
 8001ec2:	bd70      	pop	{r4, r5, r6, pc}
 8001ec4:	fffeffff 	.word	0xfffeffff
 8001ec8:	fffeff8f 	.word	0xfffeff8f
 8001ecc:	fffdffff 	.word	0xfffdffff
 8001ed0:	40012c00 	.word	0x40012c00
 8001ed4:	40014400 	.word	0x40014400
 8001ed8:	40014800 	.word	0x40014800

08001edc <TIM_OC6_SetConfig>:
 8001edc:	6a03      	ldr	r3, [r0, #32]
 8001ede:	4a12      	ldr	r2, [pc, #72]	; (8001f28 <TIM_OC6_SetConfig+0x4c>)
 8001ee0:	b530      	push	{r4, r5, lr}
 8001ee2:	4013      	ands	r3, r2
 8001ee4:	6203      	str	r3, [r0, #32]
 8001ee6:	6a02      	ldr	r2, [r0, #32]
 8001ee8:	4c10      	ldr	r4, [pc, #64]	; (8001f2c <TIM_OC6_SetConfig+0x50>)
 8001eea:	6843      	ldr	r3, [r0, #4]
 8001eec:	6d45      	ldr	r5, [r0, #84]	; 0x54
 8001eee:	4025      	ands	r5, r4
 8001ef0:	680c      	ldr	r4, [r1, #0]
 8001ef2:	0224      	lsls	r4, r4, #8
 8001ef4:	4325      	orrs	r5, r4
 8001ef6:	4c0e      	ldr	r4, [pc, #56]	; (8001f30 <TIM_OC6_SetConfig+0x54>)
 8001ef8:	4022      	ands	r2, r4
 8001efa:	688c      	ldr	r4, [r1, #8]
 8001efc:	0524      	lsls	r4, r4, #20
 8001efe:	4322      	orrs	r2, r4
 8001f00:	4c0c      	ldr	r4, [pc, #48]	; (8001f34 <TIM_OC6_SetConfig+0x58>)
 8001f02:	42a0      	cmp	r0, r4
 8001f04:	d005      	beq.n	8001f12 <TIM_OC6_SetConfig+0x36>
 8001f06:	4c0c      	ldr	r4, [pc, #48]	; (8001f38 <TIM_OC6_SetConfig+0x5c>)
 8001f08:	42a0      	cmp	r0, r4
 8001f0a:	d002      	beq.n	8001f12 <TIM_OC6_SetConfig+0x36>
 8001f0c:	4c0b      	ldr	r4, [pc, #44]	; (8001f3c <TIM_OC6_SetConfig+0x60>)
 8001f0e:	42a0      	cmp	r0, r4
 8001f10:	d104      	bne.n	8001f1c <TIM_OC6_SetConfig+0x40>
 8001f12:	4c0b      	ldr	r4, [pc, #44]	; (8001f40 <TIM_OC6_SetConfig+0x64>)
 8001f14:	4023      	ands	r3, r4
 8001f16:	694c      	ldr	r4, [r1, #20]
 8001f18:	02a4      	lsls	r4, r4, #10
 8001f1a:	4323      	orrs	r3, r4
 8001f1c:	6043      	str	r3, [r0, #4]
 8001f1e:	684b      	ldr	r3, [r1, #4]
 8001f20:	6545      	str	r5, [r0, #84]	; 0x54
 8001f22:	65c3      	str	r3, [r0, #92]	; 0x5c
 8001f24:	6202      	str	r2, [r0, #32]
 8001f26:	bd30      	pop	{r4, r5, pc}
 8001f28:	ffefffff 	.word	0xffefffff
 8001f2c:	feff8fff 	.word	0xfeff8fff
 8001f30:	ffdfffff 	.word	0xffdfffff
 8001f34:	40012c00 	.word	0x40012c00
 8001f38:	40014400 	.word	0x40014400
 8001f3c:	40014800 	.word	0x40014800
 8001f40:	fffbffff 	.word	0xfffbffff

08001f44 <HAL_TIM_PWM_MspInit>:
 8001f44:	4770      	bx	lr
	...

08001f48 <TIM_Base_SetConfig>:
 8001f48:	4a19      	ldr	r2, [pc, #100]	; (8001fb0 <TIM_Base_SetConfig+0x68>)
 8001f4a:	b510      	push	{r4, lr}
 8001f4c:	6803      	ldr	r3, [r0, #0]
 8001f4e:	4290      	cmp	r0, r2
 8001f50:	d002      	beq.n	8001f58 <TIM_Base_SetConfig+0x10>
 8001f52:	4c18      	ldr	r4, [pc, #96]	; (8001fb4 <TIM_Base_SetConfig+0x6c>)
 8001f54:	42a0      	cmp	r0, r4
 8001f56:	d108      	bne.n	8001f6a <TIM_Base_SetConfig+0x22>
 8001f58:	2470      	movs	r4, #112	; 0x70
 8001f5a:	43a3      	bics	r3, r4
 8001f5c:	684c      	ldr	r4, [r1, #4]
 8001f5e:	4323      	orrs	r3, r4
 8001f60:	4290      	cmp	r0, r2
 8001f62:	d00b      	beq.n	8001f7c <TIM_Base_SetConfig+0x34>
 8001f64:	4c13      	ldr	r4, [pc, #76]	; (8001fb4 <TIM_Base_SetConfig+0x6c>)
 8001f66:	42a0      	cmp	r0, r4
 8001f68:	d008      	beq.n	8001f7c <TIM_Base_SetConfig+0x34>
 8001f6a:	4c13      	ldr	r4, [pc, #76]	; (8001fb8 <TIM_Base_SetConfig+0x70>)
 8001f6c:	42a0      	cmp	r0, r4
 8001f6e:	d005      	beq.n	8001f7c <TIM_Base_SetConfig+0x34>
 8001f70:	4c12      	ldr	r4, [pc, #72]	; (8001fbc <TIM_Base_SetConfig+0x74>)
 8001f72:	42a0      	cmp	r0, r4
 8001f74:	d002      	beq.n	8001f7c <TIM_Base_SetConfig+0x34>
 8001f76:	4c12      	ldr	r4, [pc, #72]	; (8001fc0 <TIM_Base_SetConfig+0x78>)
 8001f78:	42a0      	cmp	r0, r4
 8001f7a:	d103      	bne.n	8001f84 <TIM_Base_SetConfig+0x3c>
 8001f7c:	4c11      	ldr	r4, [pc, #68]	; (8001fc4 <TIM_Base_SetConfig+0x7c>)
 8001f7e:	4023      	ands	r3, r4
 8001f80:	68cc      	ldr	r4, [r1, #12]
 8001f82:	4323      	orrs	r3, r4
 8001f84:	2480      	movs	r4, #128	; 0x80
 8001f86:	43a3      	bics	r3, r4
 8001f88:	694c      	ldr	r4, [r1, #20]
 8001f8a:	4323      	orrs	r3, r4
 8001f8c:	6003      	str	r3, [r0, #0]
 8001f8e:	688b      	ldr	r3, [r1, #8]
 8001f90:	62c3      	str	r3, [r0, #44]	; 0x2c
 8001f92:	680b      	ldr	r3, [r1, #0]
 8001f94:	6283      	str	r3, [r0, #40]	; 0x28
 8001f96:	4290      	cmp	r0, r2
 8001f98:	d005      	beq.n	8001fa6 <TIM_Base_SetConfig+0x5e>
 8001f9a:	4b08      	ldr	r3, [pc, #32]	; (8001fbc <TIM_Base_SetConfig+0x74>)
 8001f9c:	4298      	cmp	r0, r3
 8001f9e:	d002      	beq.n	8001fa6 <TIM_Base_SetConfig+0x5e>
 8001fa0:	4b07      	ldr	r3, [pc, #28]	; (8001fc0 <TIM_Base_SetConfig+0x78>)
 8001fa2:	4298      	cmp	r0, r3
 8001fa4:	d101      	bne.n	8001faa <TIM_Base_SetConfig+0x62>
 8001fa6:	690b      	ldr	r3, [r1, #16]
 8001fa8:	6303      	str	r3, [r0, #48]	; 0x30
 8001faa:	2301      	movs	r3, #1
 8001fac:	6143      	str	r3, [r0, #20]
 8001fae:	bd10      	pop	{r4, pc}
 8001fb0:	40012c00 	.word	0x40012c00
 8001fb4:	40000400 	.word	0x40000400
 8001fb8:	40002000 	.word	0x40002000
 8001fbc:	40014400 	.word	0x40014400
 8001fc0:	40014800 	.word	0x40014800
 8001fc4:	fffffcff 	.word	0xfffffcff

08001fc8 <HAL_TIM_Base_Init>:
 8001fc8:	b570      	push	{r4, r5, r6, lr}
 8001fca:	0004      	movs	r4, r0
 8001fcc:	2001      	movs	r0, #1
 8001fce:	2c00      	cmp	r4, #0
 8001fd0:	d023      	beq.n	800201a <HAL_TIM_Base_Init+0x52>
 8001fd2:	0025      	movs	r5, r4
 8001fd4:	353d      	adds	r5, #61	; 0x3d
 8001fd6:	782b      	ldrb	r3, [r5, #0]
 8001fd8:	b2da      	uxtb	r2, r3
 8001fda:	2b00      	cmp	r3, #0
 8001fdc:	d105      	bne.n	8001fea <HAL_TIM_Base_Init+0x22>
 8001fde:	0023      	movs	r3, r4
 8001fe0:	333c      	adds	r3, #60	; 0x3c
 8001fe2:	0020      	movs	r0, r4
 8001fe4:	701a      	strb	r2, [r3, #0]
 8001fe6:	f7fe fc5f 	bl	80008a8 <HAL_TIM_Base_MspInit>
 8001fea:	2302      	movs	r3, #2
 8001fec:	702b      	strb	r3, [r5, #0]
 8001fee:	6820      	ldr	r0, [r4, #0]
 8001ff0:	1d21      	adds	r1, r4, #4
 8001ff2:	f7ff ffa9 	bl	8001f48 <TIM_Base_SetConfig>
 8001ff6:	0022      	movs	r2, r4
 8001ff8:	2301      	movs	r3, #1
 8001ffa:	2000      	movs	r0, #0
 8001ffc:	3248      	adds	r2, #72	; 0x48
 8001ffe:	7013      	strb	r3, [r2, #0]
 8002000:	3447      	adds	r4, #71	; 0x47
 8002002:	3a0a      	subs	r2, #10
 8002004:	7013      	strb	r3, [r2, #0]
 8002006:	7053      	strb	r3, [r2, #1]
 8002008:	7093      	strb	r3, [r2, #2]
 800200a:	70d3      	strb	r3, [r2, #3]
 800200c:	7113      	strb	r3, [r2, #4]
 800200e:	7153      	strb	r3, [r2, #5]
 8002010:	7193      	strb	r3, [r2, #6]
 8002012:	71d3      	strb	r3, [r2, #7]
 8002014:	7213      	strb	r3, [r2, #8]
 8002016:	7023      	strb	r3, [r4, #0]
 8002018:	702b      	strb	r3, [r5, #0]
 800201a:	bd70      	pop	{r4, r5, r6, pc}

0800201c <HAL_TIM_PWM_Init>:
 800201c:	b570      	push	{r4, r5, r6, lr}
 800201e:	0004      	movs	r4, r0
 8002020:	2001      	movs	r0, #1
 8002022:	2c00      	cmp	r4, #0
 8002024:	d023      	beq.n	800206e <HAL_TIM_PWM_Init+0x52>
 8002026:	0025      	movs	r5, r4
 8002028:	353d      	adds	r5, #61	; 0x3d
 800202a:	782b      	ldrb	r3, [r5, #0]
 800202c:	b2da      	uxtb	r2, r3
 800202e:	2b00      	cmp	r3, #0
 8002030:	d105      	bne.n	800203e <HAL_TIM_PWM_Init+0x22>
 8002032:	0023      	movs	r3, r4
 8002034:	333c      	adds	r3, #60	; 0x3c
 8002036:	0020      	movs	r0, r4
 8002038:	701a      	strb	r2, [r3, #0]
 800203a:	f7ff ff83 	bl	8001f44 <HAL_TIM_PWM_MspInit>
 800203e:	2302      	movs	r3, #2
 8002040:	702b      	strb	r3, [r5, #0]
 8002042:	6820      	ldr	r0, [r4, #0]
 8002044:	1d21      	adds	r1, r4, #4
 8002046:	f7ff ff7f 	bl	8001f48 <TIM_Base_SetConfig>
 800204a:	0022      	movs	r2, r4
 800204c:	2301      	movs	r3, #1
 800204e:	2000      	movs	r0, #0
 8002050:	3248      	adds	r2, #72	; 0x48
 8002052:	7013      	strb	r3, [r2, #0]
 8002054:	3447      	adds	r4, #71	; 0x47
 8002056:	3a0a      	subs	r2, #10
 8002058:	7013      	strb	r3, [r2, #0]
 800205a:	7053      	strb	r3, [r2, #1]
 800205c:	7093      	strb	r3, [r2, #2]
 800205e:	70d3      	strb	r3, [r2, #3]
 8002060:	7113      	strb	r3, [r2, #4]
 8002062:	7153      	strb	r3, [r2, #5]
 8002064:	7193      	strb	r3, [r2, #6]
 8002066:	71d3      	strb	r3, [r2, #7]
 8002068:	7213      	strb	r3, [r2, #8]
 800206a:	7023      	strb	r3, [r4, #0]
 800206c:	702b      	strb	r3, [r5, #0]
 800206e:	bd70      	pop	{r4, r5, r6, pc}

08002070 <TIM_OC2_SetConfig>:
 8002070:	2210      	movs	r2, #16
 8002072:	6a03      	ldr	r3, [r0, #32]
 8002074:	b570      	push	{r4, r5, r6, lr}
 8002076:	4393      	bics	r3, r2
 8002078:	6203      	str	r3, [r0, #32]
 800207a:	6a02      	ldr	r2, [r0, #32]
 800207c:	4c15      	ldr	r4, [pc, #84]	; (80020d4 <TIM_OC2_SetConfig+0x64>)
 800207e:	6843      	ldr	r3, [r0, #4]
 8002080:	6985      	ldr	r5, [r0, #24]
 8002082:	4025      	ands	r5, r4
 8002084:	680c      	ldr	r4, [r1, #0]
 8002086:	0224      	lsls	r4, r4, #8
 8002088:	4325      	orrs	r5, r4
 800208a:	2420      	movs	r4, #32
 800208c:	43a2      	bics	r2, r4
 800208e:	688c      	ldr	r4, [r1, #8]
 8002090:	0124      	lsls	r4, r4, #4
 8002092:	4322      	orrs	r2, r4
 8002094:	4c10      	ldr	r4, [pc, #64]	; (80020d8 <TIM_OC2_SetConfig+0x68>)
 8002096:	42a0      	cmp	r0, r4
 8002098:	d10f      	bne.n	80020ba <TIM_OC2_SetConfig+0x4a>
 800209a:	2480      	movs	r4, #128	; 0x80
 800209c:	43a2      	bics	r2, r4
 800209e:	0014      	movs	r4, r2
 80020a0:	68ca      	ldr	r2, [r1, #12]
 80020a2:	0112      	lsls	r2, r2, #4
 80020a4:	4322      	orrs	r2, r4
 80020a6:	2440      	movs	r4, #64	; 0x40
 80020a8:	43a2      	bics	r2, r4
 80020aa:	4e0c      	ldr	r6, [pc, #48]	; (80020dc <TIM_OC2_SetConfig+0x6c>)
 80020ac:	694c      	ldr	r4, [r1, #20]
 80020ae:	401e      	ands	r6, r3
 80020b0:	698b      	ldr	r3, [r1, #24]
 80020b2:	4323      	orrs	r3, r4
 80020b4:	009b      	lsls	r3, r3, #2
 80020b6:	4333      	orrs	r3, r6
 80020b8:	e005      	b.n	80020c6 <TIM_OC2_SetConfig+0x56>
 80020ba:	4c09      	ldr	r4, [pc, #36]	; (80020e0 <TIM_OC2_SetConfig+0x70>)
 80020bc:	42a0      	cmp	r0, r4
 80020be:	d0f4      	beq.n	80020aa <TIM_OC2_SetConfig+0x3a>
 80020c0:	4c08      	ldr	r4, [pc, #32]	; (80020e4 <TIM_OC2_SetConfig+0x74>)
 80020c2:	42a0      	cmp	r0, r4
 80020c4:	d0f1      	beq.n	80020aa <TIM_OC2_SetConfig+0x3a>
 80020c6:	6043      	str	r3, [r0, #4]
 80020c8:	684b      	ldr	r3, [r1, #4]
 80020ca:	6185      	str	r5, [r0, #24]
 80020cc:	6383      	str	r3, [r0, #56]	; 0x38
 80020ce:	6202      	str	r2, [r0, #32]
 80020d0:	bd70      	pop	{r4, r5, r6, pc}
 80020d2:	46c0      	nop			; (mov r8, r8)
 80020d4:	feff8cff 	.word	0xfeff8cff
 80020d8:	40012c00 	.word	0x40012c00
 80020dc:	fffff3ff 	.word	0xfffff3ff
 80020e0:	40014400 	.word	0x40014400
 80020e4:	40014800 	.word	0x40014800

080020e8 <HAL_TIM_PWM_ConfigChannel>:
 80020e8:	b5f8      	push	{r3, r4, r5, r6, r7, lr}
 80020ea:	0007      	movs	r7, r0
 80020ec:	373c      	adds	r7, #60	; 0x3c
 80020ee:	783b      	ldrb	r3, [r7, #0]
 80020f0:	0004      	movs	r4, r0
 80020f2:	000d      	movs	r5, r1
 80020f4:	0016      	movs	r6, r2
 80020f6:	2002      	movs	r0, #2
 80020f8:	2b01      	cmp	r3, #1
 80020fa:	d00c      	beq.n	8002116 <HAL_TIM_PWM_ConfigChannel+0x2e>
 80020fc:	3801      	subs	r0, #1
 80020fe:	7038      	strb	r0, [r7, #0]
 8002100:	2a0c      	cmp	r2, #12
 8002102:	d051      	beq.n	80021a8 <HAL_TIM_PWM_ConfigChannel+0xc0>
 8002104:	d808      	bhi.n	8002118 <HAL_TIM_PWM_ConfigChannel+0x30>
 8002106:	2a04      	cmp	r2, #4
 8002108:	d02d      	beq.n	8002166 <HAL_TIM_PWM_ConfigChannel+0x7e>
 800210a:	2a08      	cmp	r2, #8
 800210c:	d03c      	beq.n	8002188 <HAL_TIM_PWM_ConfigChannel+0xa0>
 800210e:	2a00      	cmp	r2, #0
 8002110:	d017      	beq.n	8002142 <HAL_TIM_PWM_ConfigChannel+0x5a>
 8002112:	2300      	movs	r3, #0
 8002114:	703b      	strb	r3, [r7, #0]
 8002116:	bdf8      	pop	{r3, r4, r5, r6, r7, pc}
 8002118:	2a10      	cmp	r2, #16
 800211a:	d056      	beq.n	80021ca <HAL_TIM_PWM_ConfigChannel+0xe2>
 800211c:	2a14      	cmp	r2, #20
 800211e:	d1f8      	bne.n	8002112 <HAL_TIM_PWM_ConfigChannel+0x2a>
 8002120:	6820      	ldr	r0, [r4, #0]
 8002122:	f7ff fedb 	bl	8001edc <TIM_OC6_SetConfig>
 8002126:	2280      	movs	r2, #128	; 0x80
 8002128:	6823      	ldr	r3, [r4, #0]
 800212a:	0112      	lsls	r2, r2, #4
 800212c:	6d59      	ldr	r1, [r3, #84]	; 0x54
 800212e:	430a      	orrs	r2, r1
 8002130:	655a      	str	r2, [r3, #84]	; 0x54
 8002132:	6d5a      	ldr	r2, [r3, #84]	; 0x54
 8002134:	492d      	ldr	r1, [pc, #180]	; (80021ec <HAL_TIM_PWM_ConfigChannel+0x104>)
 8002136:	400a      	ands	r2, r1
 8002138:	655a      	str	r2, [r3, #84]	; 0x54
 800213a:	692a      	ldr	r2, [r5, #16]
 800213c:	6d59      	ldr	r1, [r3, #84]	; 0x54
 800213e:	0212      	lsls	r2, r2, #8
 8002140:	e051      	b.n	80021e6 <HAL_TIM_PWM_ConfigChannel+0xfe>
 8002142:	6820      	ldr	r0, [r4, #0]
 8002144:	f7ff fde6 	bl	8001d14 <TIM_OC1_SetConfig>
 8002148:	2208      	movs	r2, #8
 800214a:	6823      	ldr	r3, [r4, #0]
 800214c:	6999      	ldr	r1, [r3, #24]
 800214e:	430a      	orrs	r2, r1
 8002150:	2104      	movs	r1, #4
 8002152:	619a      	str	r2, [r3, #24]
 8002154:	699a      	ldr	r2, [r3, #24]
 8002156:	438a      	bics	r2, r1
 8002158:	619a      	str	r2, [r3, #24]
 800215a:	699a      	ldr	r2, [r3, #24]
 800215c:	6929      	ldr	r1, [r5, #16]
 800215e:	430a      	orrs	r2, r1
 8002160:	619a      	str	r2, [r3, #24]
 8002162:	2000      	movs	r0, #0
 8002164:	e7d5      	b.n	8002112 <HAL_TIM_PWM_ConfigChannel+0x2a>
 8002166:	6820      	ldr	r0, [r4, #0]
 8002168:	f7ff ff82 	bl	8002070 <TIM_OC2_SetConfig>
 800216c:	2280      	movs	r2, #128	; 0x80
 800216e:	6823      	ldr	r3, [r4, #0]
 8002170:	0112      	lsls	r2, r2, #4
 8002172:	6999      	ldr	r1, [r3, #24]
 8002174:	430a      	orrs	r2, r1
 8002176:	619a      	str	r2, [r3, #24]
 8002178:	699a      	ldr	r2, [r3, #24]
 800217a:	491c      	ldr	r1, [pc, #112]	; (80021ec <HAL_TIM_PWM_ConfigChannel+0x104>)
 800217c:	400a      	ands	r2, r1
 800217e:	619a      	str	r2, [r3, #24]
 8002180:	692a      	ldr	r2, [r5, #16]
 8002182:	6999      	ldr	r1, [r3, #24]
 8002184:	0212      	lsls	r2, r2, #8
 8002186:	e7ea      	b.n	800215e <HAL_TIM_PWM_ConfigChannel+0x76>
 8002188:	6820      	ldr	r0, [r4, #0]
 800218a:	f7ff fe01 	bl	8001d90 <TIM_OC3_SetConfig>
 800218e:	2104      	movs	r1, #4
 8002190:	6823      	ldr	r3, [r4, #0]
 8002192:	69da      	ldr	r2, [r3, #28]
 8002194:	4316      	orrs	r6, r2
 8002196:	61de      	str	r6, [r3, #28]
 8002198:	69da      	ldr	r2, [r3, #28]
 800219a:	438a      	bics	r2, r1
 800219c:	61da      	str	r2, [r3, #28]
 800219e:	69da      	ldr	r2, [r3, #28]
 80021a0:	6929      	ldr	r1, [r5, #16]
 80021a2:	430a      	orrs	r2, r1
 80021a4:	61da      	str	r2, [r3, #28]
 80021a6:	e7dc      	b.n	8002162 <HAL_TIM_PWM_ConfigChannel+0x7a>
 80021a8:	6820      	ldr	r0, [r4, #0]
 80021aa:	f7ff fe33 	bl	8001e14 <TIM_OC4_SetConfig>
 80021ae:	2280      	movs	r2, #128	; 0x80
 80021b0:	6823      	ldr	r3, [r4, #0]
 80021b2:	0112      	lsls	r2, r2, #4
 80021b4:	69d9      	ldr	r1, [r3, #28]
 80021b6:	430a      	orrs	r2, r1
 80021b8:	61da      	str	r2, [r3, #28]
 80021ba:	69da      	ldr	r2, [r3, #28]
 80021bc:	490b      	ldr	r1, [pc, #44]	; (80021ec <HAL_TIM_PWM_ConfigChannel+0x104>)
 80021be:	400a      	ands	r2, r1
 80021c0:	61da      	str	r2, [r3, #28]
 80021c2:	692a      	ldr	r2, [r5, #16]
 80021c4:	69d9      	ldr	r1, [r3, #28]
 80021c6:	0212      	lsls	r2, r2, #8
 80021c8:	e7eb      	b.n	80021a2 <HAL_TIM_PWM_ConfigChannel+0xba>
 80021ca:	6820      	ldr	r0, [r4, #0]
 80021cc:	f7ff fe56 	bl	8001e7c <TIM_OC5_SetConfig>
 80021d0:	2208      	movs	r2, #8
 80021d2:	6823      	ldr	r3, [r4, #0]
 80021d4:	6d59      	ldr	r1, [r3, #84]	; 0x54
 80021d6:	430a      	orrs	r2, r1
 80021d8:	2104      	movs	r1, #4
 80021da:	655a      	str	r2, [r3, #84]	; 0x54
 80021dc:	6d5a      	ldr	r2, [r3, #84]	; 0x54
 80021de:	438a      	bics	r2, r1
 80021e0:	655a      	str	r2, [r3, #84]	; 0x54
 80021e2:	6d5a      	ldr	r2, [r3, #84]	; 0x54
 80021e4:	6929      	ldr	r1, [r5, #16]
 80021e6:	430a      	orrs	r2, r1
 80021e8:	655a      	str	r2, [r3, #84]	; 0x54
 80021ea:	e7ba      	b.n	8002162 <HAL_TIM_PWM_ConfigChannel+0x7a>
 80021ec:	fffffbff 	.word	0xfffffbff

080021f0 <TIM_ETR_SetConfig>:
 80021f0:	b530      	push	{r4, r5, lr}
 80021f2:	6884      	ldr	r4, [r0, #8]
 80021f4:	4d03      	ldr	r5, [pc, #12]	; (8002204 <TIM_ETR_SetConfig+0x14>)
 80021f6:	430a      	orrs	r2, r1
 80021f8:	021b      	lsls	r3, r3, #8
 80021fa:	402c      	ands	r4, r5
 80021fc:	4313      	orrs	r3, r2
 80021fe:	4323      	orrs	r3, r4
 8002200:	6083      	str	r3, [r0, #8]
 8002202:	bd30      	pop	{r4, r5, pc}
 8002204:	ffff00ff 	.word	0xffff00ff

08002208 <HAL_TIM_ConfigClockSource>:
 8002208:	b5f8      	push	{r3, r4, r5, r6, r7, lr}
 800220a:	0005      	movs	r5, r0
 800220c:	2302      	movs	r3, #2
 800220e:	353c      	adds	r5, #60	; 0x3c
 8002210:	0004      	movs	r4, r0
 8002212:	7828      	ldrb	r0, [r5, #0]
 8002214:	001a      	movs	r2, r3
 8002216:	2801      	cmp	r0, #1
 8002218:	d01d      	beq.n	8002256 <HAL_TIM_ConfigClockSource+0x4e>
 800221a:	0026      	movs	r6, r4
 800221c:	2701      	movs	r7, #1
 800221e:	363d      	adds	r6, #61	; 0x3d
 8002220:	702f      	strb	r7, [r5, #0]
 8002222:	7033      	strb	r3, [r6, #0]
 8002224:	6820      	ldr	r0, [r4, #0]
 8002226:	4a47      	ldr	r2, [pc, #284]	; (8002344 <HAL_TIM_ConfigClockSource+0x13c>)
 8002228:	6883      	ldr	r3, [r0, #8]
 800222a:	4013      	ands	r3, r2
 800222c:	6083      	str	r3, [r0, #8]
 800222e:	680b      	ldr	r3, [r1, #0]
 8002230:	2b60      	cmp	r3, #96	; 0x60
 8002232:	d058      	beq.n	80022e6 <HAL_TIM_ConfigClockSource+0xde>
 8002234:	d834      	bhi.n	80022a0 <HAL_TIM_ConfigClockSource+0x98>
 8002236:	2b40      	cmp	r3, #64	; 0x40
 8002238:	d100      	bne.n	800223c <HAL_TIM_ConfigClockSource+0x34>
 800223a:	e06c      	b.n	8002316 <HAL_TIM_ConfigClockSource+0x10e>
 800223c:	d815      	bhi.n	800226a <HAL_TIM_ConfigClockSource+0x62>
 800223e:	2b20      	cmp	r3, #32
 8002240:	d00d      	beq.n	800225e <HAL_TIM_ConfigClockSource+0x56>
 8002242:	d80a      	bhi.n	800225a <HAL_TIM_ConfigClockSource+0x52>
 8002244:	2210      	movs	r2, #16
 8002246:	0019      	movs	r1, r3
 8002248:	4391      	bics	r1, r2
 800224a:	d008      	beq.n	800225e <HAL_TIM_ConfigClockSource+0x56>
 800224c:	003a      	movs	r2, r7
 800224e:	2301      	movs	r3, #1
 8002250:	7033      	strb	r3, [r6, #0]
 8002252:	2300      	movs	r3, #0
 8002254:	702b      	strb	r3, [r5, #0]
 8002256:	0010      	movs	r0, r2
 8002258:	bdf8      	pop	{r3, r4, r5, r6, r7, pc}
 800225a:	2b30      	cmp	r3, #48	; 0x30
 800225c:	d1f6      	bne.n	800224c <HAL_TIM_ConfigClockSource+0x44>
 800225e:	6882      	ldr	r2, [r0, #8]
 8002260:	4939      	ldr	r1, [pc, #228]	; (8002348 <HAL_TIM_ConfigClockSource+0x140>)
 8002262:	400a      	ands	r2, r1
 8002264:	4313      	orrs	r3, r2
 8002266:	2207      	movs	r2, #7
 8002268:	e017      	b.n	800229a <HAL_TIM_ConfigClockSource+0x92>
 800226a:	2b50      	cmp	r3, #80	; 0x50
 800226c:	d1ee      	bne.n	800224c <HAL_TIM_ConfigClockSource+0x44>
 800226e:	68ca      	ldr	r2, [r1, #12]
 8002270:	684c      	ldr	r4, [r1, #4]
 8002272:	6a01      	ldr	r1, [r0, #32]
 8002274:	6a03      	ldr	r3, [r0, #32]
 8002276:	43bb      	bics	r3, r7
 8002278:	27f0      	movs	r7, #240	; 0xf0
 800227a:	6203      	str	r3, [r0, #32]
 800227c:	6983      	ldr	r3, [r0, #24]
 800227e:	43bb      	bics	r3, r7
 8002280:	001f      	movs	r7, r3
 8002282:	0113      	lsls	r3, r2, #4
 8002284:	220a      	movs	r2, #10
 8002286:	4391      	bics	r1, r2
 8002288:	000a      	movs	r2, r1
 800228a:	433b      	orrs	r3, r7
 800228c:	4322      	orrs	r2, r4
 800228e:	6183      	str	r3, [r0, #24]
 8002290:	6202      	str	r2, [r0, #32]
 8002292:	6883      	ldr	r3, [r0, #8]
 8002294:	4a2c      	ldr	r2, [pc, #176]	; (8002348 <HAL_TIM_ConfigClockSource+0x140>)
 8002296:	401a      	ands	r2, r3
 8002298:	2357      	movs	r3, #87	; 0x57
 800229a:	4313      	orrs	r3, r2
 800229c:	6083      	str	r3, [r0, #8]
 800229e:	e016      	b.n	80022ce <HAL_TIM_ConfigClockSource+0xc6>
 80022a0:	2280      	movs	r2, #128	; 0x80
 80022a2:	0152      	lsls	r2, r2, #5
 80022a4:	4694      	mov	ip, r2
 80022a6:	2200      	movs	r2, #0
 80022a8:	4563      	cmp	r3, ip
 80022aa:	d0d0      	beq.n	800224e <HAL_TIM_ConfigClockSource+0x46>
 80022ac:	2280      	movs	r2, #128	; 0x80
 80022ae:	0192      	lsls	r2, r2, #6
 80022b0:	4293      	cmp	r3, r2
 80022b2:	d00e      	beq.n	80022d2 <HAL_TIM_ConfigClockSource+0xca>
 80022b4:	003a      	movs	r2, r7
 80022b6:	2b70      	cmp	r3, #112	; 0x70
 80022b8:	d1c9      	bne.n	800224e <HAL_TIM_ConfigClockSource+0x46>
 80022ba:	68cb      	ldr	r3, [r1, #12]
 80022bc:	684a      	ldr	r2, [r1, #4]
 80022be:	6889      	ldr	r1, [r1, #8]
 80022c0:	f7ff ff96 	bl	80021f0 <TIM_ETR_SetConfig>
 80022c4:	2377      	movs	r3, #119	; 0x77
 80022c6:	6822      	ldr	r2, [r4, #0]
 80022c8:	6891      	ldr	r1, [r2, #8]
 80022ca:	430b      	orrs	r3, r1
 80022cc:	6093      	str	r3, [r2, #8]
 80022ce:	2200      	movs	r2, #0
 80022d0:	e7bd      	b.n	800224e <HAL_TIM_ConfigClockSource+0x46>
 80022d2:	68cb      	ldr	r3, [r1, #12]
 80022d4:	684a      	ldr	r2, [r1, #4]
 80022d6:	6889      	ldr	r1, [r1, #8]
 80022d8:	f7ff ff8a 	bl	80021f0 <TIM_ETR_SetConfig>
 80022dc:	2380      	movs	r3, #128	; 0x80
 80022de:	6822      	ldr	r2, [r4, #0]
 80022e0:	01db      	lsls	r3, r3, #7
 80022e2:	6891      	ldr	r1, [r2, #8]
 80022e4:	e7f1      	b.n	80022ca <HAL_TIM_ConfigClockSource+0xc2>
 80022e6:	684a      	ldr	r2, [r1, #4]
 80022e8:	68cf      	ldr	r7, [r1, #12]
 80022ea:	2110      	movs	r1, #16
 80022ec:	6a03      	ldr	r3, [r0, #32]
 80022ee:	4c17      	ldr	r4, [pc, #92]	; (800234c <HAL_TIM_ConfigClockSource+0x144>)
 80022f0:	438b      	bics	r3, r1
 80022f2:	6203      	str	r3, [r0, #32]
 80022f4:	6981      	ldr	r1, [r0, #24]
 80022f6:	6a03      	ldr	r3, [r0, #32]
 80022f8:	4021      	ands	r1, r4
 80022fa:	24a0      	movs	r4, #160	; 0xa0
 80022fc:	43a3      	bics	r3, r4
 80022fe:	001c      	movs	r4, r3
 8002300:	033f      	lsls	r7, r7, #12
 8002302:	0113      	lsls	r3, r2, #4
 8002304:	4323      	orrs	r3, r4
 8002306:	4339      	orrs	r1, r7
 8002308:	6181      	str	r1, [r0, #24]
 800230a:	6203      	str	r3, [r0, #32]
 800230c:	6883      	ldr	r3, [r0, #8]
 800230e:	4a0e      	ldr	r2, [pc, #56]	; (8002348 <HAL_TIM_ConfigClockSource+0x140>)
 8002310:	401a      	ands	r2, r3
 8002312:	2367      	movs	r3, #103	; 0x67
 8002314:	e7c1      	b.n	800229a <HAL_TIM_ConfigClockSource+0x92>
 8002316:	68ca      	ldr	r2, [r1, #12]
 8002318:	684c      	ldr	r4, [r1, #4]
 800231a:	6a01      	ldr	r1, [r0, #32]
 800231c:	6a03      	ldr	r3, [r0, #32]
 800231e:	43bb      	bics	r3, r7
 8002320:	27f0      	movs	r7, #240	; 0xf0
 8002322:	6203      	str	r3, [r0, #32]
 8002324:	6983      	ldr	r3, [r0, #24]
 8002326:	43bb      	bics	r3, r7
 8002328:	001f      	movs	r7, r3
 800232a:	0113      	lsls	r3, r2, #4
 800232c:	220a      	movs	r2, #10
 800232e:	4391      	bics	r1, r2
 8002330:	000a      	movs	r2, r1
 8002332:	433b      	orrs	r3, r7
 8002334:	4322      	orrs	r2, r4
 8002336:	6183      	str	r3, [r0, #24]
 8002338:	6202      	str	r2, [r0, #32]
 800233a:	6883      	ldr	r3, [r0, #8]
 800233c:	4a02      	ldr	r2, [pc, #8]	; (8002348 <HAL_TIM_ConfigClockSource+0x140>)
 800233e:	401a      	ands	r2, r3
 8002340:	2347      	movs	r3, #71	; 0x47
 8002342:	e7aa      	b.n	800229a <HAL_TIM_ConfigClockSource+0x92>
 8002344:	ffce0088 	.word	0xffce0088
 8002348:	ffcfff8f 	.word	0xffcfff8f
 800234c:	ffff0fff 	.word	0xffff0fff

08002350 <TIM_CCxChannelCmd>:
 8002350:	231f      	movs	r3, #31
 8002352:	b510      	push	{r4, lr}
 8002354:	2401      	movs	r4, #1
 8002356:	4019      	ands	r1, r3
 8002358:	408c      	lsls	r4, r1
 800235a:	408a      	lsls	r2, r1
 800235c:	6a03      	ldr	r3, [r0, #32]
 800235e:	43a3      	bics	r3, r4
 8002360:	6203      	str	r3, [r0, #32]
 8002362:	6a03      	ldr	r3, [r0, #32]
 8002364:	431a      	orrs	r2, r3
 8002366:	6202      	str	r2, [r0, #32]
 8002368:	bd10      	pop	{r4, pc}
	...

0800236c <HAL_TIM_OC_Start>:
 800236c:	b510      	push	{r4, lr}
 800236e:	0003      	movs	r3, r0
 8002370:	0004      	movs	r4, r0
 8002372:	2900      	cmp	r1, #0
 8002374:	d105      	bne.n	8002382 <HAL_TIM_OC_Start+0x16>
 8002376:	333e      	adds	r3, #62	; 0x3e
 8002378:	2001      	movs	r0, #1
 800237a:	781a      	ldrb	r2, [r3, #0]
 800237c:	4282      	cmp	r2, r0
 800237e:	d020      	beq.n	80023c2 <HAL_TIM_OC_Start+0x56>
 8002380:	bd10      	pop	{r4, pc}
 8002382:	2904      	cmp	r1, #4
 8002384:	d101      	bne.n	800238a <HAL_TIM_OC_Start+0x1e>
 8002386:	333f      	adds	r3, #63	; 0x3f
 8002388:	e7f6      	b.n	8002378 <HAL_TIM_OC_Start+0xc>
 800238a:	2908      	cmp	r1, #8
 800238c:	d10f      	bne.n	80023ae <HAL_TIM_OC_Start+0x42>
 800238e:	3340      	adds	r3, #64	; 0x40
 8002390:	781b      	ldrb	r3, [r3, #0]
 8002392:	2001      	movs	r0, #1
 8002394:	3b01      	subs	r3, #1
 8002396:	1e5a      	subs	r2, r3, #1
 8002398:	4193      	sbcs	r3, r2
 800239a:	b2db      	uxtb	r3, r3
 800239c:	2b00      	cmp	r3, #0
 800239e:	d1ef      	bne.n	8002380 <HAL_TIM_OC_Start+0x14>
 80023a0:	2302      	movs	r3, #2
 80023a2:	0022      	movs	r2, r4
 80023a4:	2908      	cmp	r1, #8
 80023a6:	d12d      	bne.n	8002404 <HAL_TIM_OC_Start+0x98>
 80023a8:	3240      	adds	r2, #64	; 0x40
 80023aa:	7013      	strb	r3, [r2, #0]
 80023ac:	e00b      	b.n	80023c6 <HAL_TIM_OC_Start+0x5a>
 80023ae:	290c      	cmp	r1, #12
 80023b0:	d101      	bne.n	80023b6 <HAL_TIM_OC_Start+0x4a>
 80023b2:	3341      	adds	r3, #65	; 0x41
 80023b4:	e7ec      	b.n	8002390 <HAL_TIM_OC_Start+0x24>
 80023b6:	2910      	cmp	r1, #16
 80023b8:	d101      	bne.n	80023be <HAL_TIM_OC_Start+0x52>
 80023ba:	3342      	adds	r3, #66	; 0x42
 80023bc:	e7e8      	b.n	8002390 <HAL_TIM_OC_Start+0x24>
 80023be:	3343      	adds	r3, #67	; 0x43
 80023c0:	e7e6      	b.n	8002390 <HAL_TIM_OC_Start+0x24>
 80023c2:	2202      	movs	r2, #2
 80023c4:	701a      	strb	r2, [r3, #0]
 80023c6:	2201      	movs	r2, #1
 80023c8:	6820      	ldr	r0, [r4, #0]
 80023ca:	f7ff ffc1 	bl	8002350 <TIM_CCxChannelCmd>
 80023ce:	6823      	ldr	r3, [r4, #0]
 80023d0:	4918      	ldr	r1, [pc, #96]	; (8002434 <HAL_TIM_OC_Start+0xc8>)
 80023d2:	428b      	cmp	r3, r1
 80023d4:	d020      	beq.n	8002418 <HAL_TIM_OC_Start+0xac>
 80023d6:	4a18      	ldr	r2, [pc, #96]	; (8002438 <HAL_TIM_OC_Start+0xcc>)
 80023d8:	4293      	cmp	r3, r2
 80023da:	d01d      	beq.n	8002418 <HAL_TIM_OC_Start+0xac>
 80023dc:	4a17      	ldr	r2, [pc, #92]	; (800243c <HAL_TIM_OC_Start+0xd0>)
 80023de:	4293      	cmp	r3, r2
 80023e0:	d01a      	beq.n	8002418 <HAL_TIM_OC_Start+0xac>
 80023e2:	4a17      	ldr	r2, [pc, #92]	; (8002440 <HAL_TIM_OC_Start+0xd4>)
 80023e4:	4293      	cmp	r3, r2
 80023e6:	d11f      	bne.n	8002428 <HAL_TIM_OC_Start+0xbc>
 80023e8:	689a      	ldr	r2, [r3, #8]
 80023ea:	4916      	ldr	r1, [pc, #88]	; (8002444 <HAL_TIM_OC_Start+0xd8>)
 80023ec:	2000      	movs	r0, #0
 80023ee:	400a      	ands	r2, r1
 80023f0:	2a06      	cmp	r2, #6
 80023f2:	d0c5      	beq.n	8002380 <HAL_TIM_OC_Start+0x14>
 80023f4:	3907      	subs	r1, #7
 80023f6:	428a      	cmp	r2, r1
 80023f8:	d0c2      	beq.n	8002380 <HAL_TIM_OC_Start+0x14>
 80023fa:	2201      	movs	r2, #1
 80023fc:	6819      	ldr	r1, [r3, #0]
 80023fe:	430a      	orrs	r2, r1
 8002400:	601a      	str	r2, [r3, #0]
 8002402:	e7bd      	b.n	8002380 <HAL_TIM_OC_Start+0x14>
 8002404:	290c      	cmp	r1, #12
 8002406:	d101      	bne.n	800240c <HAL_TIM_OC_Start+0xa0>
 8002408:	3241      	adds	r2, #65	; 0x41
 800240a:	e7ce      	b.n	80023aa <HAL_TIM_OC_Start+0x3e>
 800240c:	2910      	cmp	r1, #16
 800240e:	d101      	bne.n	8002414 <HAL_TIM_OC_Start+0xa8>
 8002410:	3242      	adds	r2, #66	; 0x42
 8002412:	e7ca      	b.n	80023aa <HAL_TIM_OC_Start+0x3e>
 8002414:	3243      	adds	r2, #67	; 0x43
 8002416:	e7c8      	b.n	80023aa <HAL_TIM_OC_Start+0x3e>
 8002418:	2280      	movs	r2, #128	; 0x80
 800241a:	6c58      	ldr	r0, [r3, #68]	; 0x44
 800241c:	0212      	lsls	r2, r2, #8
 800241e:	4302      	orrs	r2, r0
 8002420:	645a      	str	r2, [r3, #68]	; 0x44
 8002422:	428b      	cmp	r3, r1
 8002424:	d1dd      	bne.n	80023e2 <HAL_TIM_OC_Start+0x76>
 8002426:	e7df      	b.n	80023e8 <HAL_TIM_OC_Start+0x7c>
 8002428:	2201      	movs	r2, #1
 800242a:	6819      	ldr	r1, [r3, #0]
 800242c:	2000      	movs	r0, #0
 800242e:	430a      	orrs	r2, r1
 8002430:	601a      	str	r2, [r3, #0]
 8002432:	e7a5      	b.n	8002380 <HAL_TIM_OC_Start+0x14>
 8002434:	40012c00 	.word	0x40012c00
 8002438:	40014400 	.word	0x40014400
 800243c:	40014800 	.word	0x40014800
 8002440:	40000400 	.word	0x40000400
 8002444:	00010007 	.word	0x00010007

08002448 <HAL_TIM_PWM_Start>:
 8002448:	b510      	push	{r4, lr}
 800244a:	f7ff ff8f 	bl	800236c <HAL_TIM_OC_Start>
 800244e:	bd10      	pop	{r4, pc}

08002450 <TIM_CCxNChannelCmd>:
 8002450:	231f      	movs	r3, #31
 8002452:	b510      	push	{r4, lr}
 8002454:	2404      	movs	r4, #4
 8002456:	4019      	ands	r1, r3
 8002458:	408c      	lsls	r4, r1
 800245a:	408a      	lsls	r2, r1
 800245c:	6a03      	ldr	r3, [r0, #32]
 800245e:	43a3      	bics	r3, r4
 8002460:	6203      	str	r3, [r0, #32]
 8002462:	6a03      	ldr	r3, [r0, #32]
 8002464:	431a      	orrs	r2, r3
 8002466:	6202      	str	r2, [r0, #32]
 8002468:	bd10      	pop	{r4, pc}
	...

0800246c <HAL_TIMEx_OCN_Start>:
 800246c:	b510      	push	{r4, lr}
 800246e:	0003      	movs	r3, r0
 8002470:	0004      	movs	r4, r0
 8002472:	2900      	cmp	r1, #0
 8002474:	d105      	bne.n	8002482 <HAL_TIMEx_OCN_Start+0x16>
 8002476:	3344      	adds	r3, #68	; 0x44
 8002478:	2001      	movs	r0, #1
 800247a:	781a      	ldrb	r2, [r3, #0]
 800247c:	4282      	cmp	r2, r0
 800247e:	d00a      	beq.n	8002496 <HAL_TIMEx_OCN_Start+0x2a>
 8002480:	bd10      	pop	{r4, pc}
 8002482:	2904      	cmp	r1, #4
 8002484:	d101      	bne.n	800248a <HAL_TIMEx_OCN_Start+0x1e>
 8002486:	3345      	adds	r3, #69	; 0x45
 8002488:	e7f6      	b.n	8002478 <HAL_TIMEx_OCN_Start+0xc>
 800248a:	2908      	cmp	r1, #8
 800248c:	d101      	bne.n	8002492 <HAL_TIMEx_OCN_Start+0x26>
 800248e:	3346      	adds	r3, #70	; 0x46
 8002490:	e7f2      	b.n	8002478 <HAL_TIMEx_OCN_Start+0xc>
 8002492:	3347      	adds	r3, #71	; 0x47
 8002494:	e7f0      	b.n	8002478 <HAL_TIMEx_OCN_Start+0xc>
 8002496:	2202      	movs	r2, #2
 8002498:	701a      	strb	r2, [r3, #0]
 800249a:	6820      	ldr	r0, [r4, #0]
 800249c:	2204      	movs	r2, #4
 800249e:	f7ff ffd7 	bl	8002450 <TIM_CCxNChannelCmd>
 80024a2:	2280      	movs	r2, #128	; 0x80
 80024a4:	6823      	ldr	r3, [r4, #0]
 80024a6:	0212      	lsls	r2, r2, #8
 80024a8:	6c59      	ldr	r1, [r3, #68]	; 0x44
 80024aa:	430a      	orrs	r2, r1
 80024ac:	645a      	str	r2, [r3, #68]	; 0x44
 80024ae:	4a0d      	ldr	r2, [pc, #52]	; (80024e4 <HAL_TIMEx_OCN_Start+0x78>)
 80024b0:	4293      	cmp	r3, r2
 80024b2:	d002      	beq.n	80024ba <HAL_TIMEx_OCN_Start+0x4e>
 80024b4:	4a0c      	ldr	r2, [pc, #48]	; (80024e8 <HAL_TIMEx_OCN_Start+0x7c>)
 80024b6:	4293      	cmp	r3, r2
 80024b8:	d10d      	bne.n	80024d6 <HAL_TIMEx_OCN_Start+0x6a>
 80024ba:	689a      	ldr	r2, [r3, #8]
 80024bc:	490b      	ldr	r1, [pc, #44]	; (80024ec <HAL_TIMEx_OCN_Start+0x80>)
 80024be:	2000      	movs	r0, #0
 80024c0:	400a      	ands	r2, r1
 80024c2:	2a06      	cmp	r2, #6
 80024c4:	d0dc      	beq.n	8002480 <HAL_TIMEx_OCN_Start+0x14>
 80024c6:	3907      	subs	r1, #7
 80024c8:	428a      	cmp	r2, r1
 80024ca:	d0d9      	beq.n	8002480 <HAL_TIMEx_OCN_Start+0x14>
 80024cc:	2201      	movs	r2, #1
 80024ce:	6819      	ldr	r1, [r3, #0]
 80024d0:	430a      	orrs	r2, r1
 80024d2:	601a      	str	r2, [r3, #0]
 80024d4:	e7d4      	b.n	8002480 <HAL_TIMEx_OCN_Start+0x14>
 80024d6:	2201      	movs	r2, #1
 80024d8:	6819      	ldr	r1, [r3, #0]
 80024da:	2000      	movs	r0, #0
 80024dc:	430a      	orrs	r2, r1
 80024de:	601a      	str	r2, [r3, #0]
 80024e0:	e7ce      	b.n	8002480 <HAL_TIMEx_OCN_Start+0x14>
 80024e2:	46c0      	nop			; (mov r8, r8)
 80024e4:	40012c00 	.word	0x40012c00
 80024e8:	40000400 	.word	0x40000400
 80024ec:	00010007 	.word	0x00010007

080024f0 <HAL_TIMEx_PWMN_Start>:
 80024f0:	b510      	push	{r4, lr}
 80024f2:	f7ff ffbb 	bl	800246c <HAL_TIMEx_OCN_Start>
 80024f6:	bd10      	pop	{r4, pc}

080024f8 <HAL_TIMEx_MasterConfigSynchronization>:
 80024f8:	b5f0      	push	{r4, r5, r6, r7, lr}
 80024fa:	0004      	movs	r4, r0
 80024fc:	2202      	movs	r2, #2
 80024fe:	343c      	adds	r4, #60	; 0x3c
 8002500:	7825      	ldrb	r5, [r4, #0]
 8002502:	0003      	movs	r3, r0
 8002504:	0010      	movs	r0, r2
 8002506:	2d01      	cmp	r5, #1
 8002508:	d01f      	beq.n	800254a <HAL_TIMEx_MasterConfigSynchronization+0x52>
 800250a:	001d      	movs	r5, r3
 800250c:	353d      	adds	r5, #61	; 0x3d
 800250e:	702a      	strb	r2, [r5, #0]
 8002510:	681a      	ldr	r2, [r3, #0]
 8002512:	4e0e      	ldr	r6, [pc, #56]	; (800254c <HAL_TIMEx_MasterConfigSynchronization+0x54>)
 8002514:	6853      	ldr	r3, [r2, #4]
 8002516:	6890      	ldr	r0, [r2, #8]
 8002518:	42b2      	cmp	r2, r6
 800251a:	d103      	bne.n	8002524 <HAL_TIMEx_MasterConfigSynchronization+0x2c>
 800251c:	4f0c      	ldr	r7, [pc, #48]	; (8002550 <HAL_TIMEx_MasterConfigSynchronization+0x58>)
 800251e:	403b      	ands	r3, r7
 8002520:	684f      	ldr	r7, [r1, #4]
 8002522:	433b      	orrs	r3, r7
 8002524:	2770      	movs	r7, #112	; 0x70
 8002526:	43bb      	bics	r3, r7
 8002528:	680f      	ldr	r7, [r1, #0]
 800252a:	433b      	orrs	r3, r7
 800252c:	6053      	str	r3, [r2, #4]
 800252e:	42b2      	cmp	r2, r6
 8002530:	d002      	beq.n	8002538 <HAL_TIMEx_MasterConfigSynchronization+0x40>
 8002532:	4b08      	ldr	r3, [pc, #32]	; (8002554 <HAL_TIMEx_MasterConfigSynchronization+0x5c>)
 8002534:	429a      	cmp	r2, r3
 8002536:	d104      	bne.n	8002542 <HAL_TIMEx_MasterConfigSynchronization+0x4a>
 8002538:	2380      	movs	r3, #128	; 0x80
 800253a:	4398      	bics	r0, r3
 800253c:	688b      	ldr	r3, [r1, #8]
 800253e:	4318      	orrs	r0, r3
 8002540:	6090      	str	r0, [r2, #8]
 8002542:	2301      	movs	r3, #1
 8002544:	2000      	movs	r0, #0
 8002546:	702b      	strb	r3, [r5, #0]
 8002548:	7020      	strb	r0, [r4, #0]
 800254a:	bdf0      	pop	{r4, r5, r6, r7, pc}
 800254c:	40012c00 	.word	0x40012c00
 8002550:	ff0fffff 	.word	0xff0fffff
 8002554:	40000400 	.word	0x40000400

08002558 <HAL_TIMEx_ConfigBreakDeadTime>:
 8002558:	b510      	push	{r4, lr}
 800255a:	0004      	movs	r4, r0
 800255c:	343c      	adds	r4, #60	; 0x3c
 800255e:	7823      	ldrb	r3, [r4, #0]
 8002560:	0002      	movs	r2, r0
 8002562:	2002      	movs	r0, #2
 8002564:	2b01      	cmp	r3, #1
 8002566:	d039      	beq.n	80025dc <HAL_TIMEx_ConfigBreakDeadTime+0x84>
 8002568:	68c8      	ldr	r0, [r1, #12]
 800256a:	4b1d      	ldr	r3, [pc, #116]	; (80025e0 <HAL_TIMEx_ConfigBreakDeadTime+0x88>)
 800256c:	6812      	ldr	r2, [r2, #0]
 800256e:	4003      	ands	r3, r0
 8002570:	6888      	ldr	r0, [r1, #8]
 8002572:	4303      	orrs	r3, r0
 8002574:	481b      	ldr	r0, [pc, #108]	; (80025e4 <HAL_TIMEx_ConfigBreakDeadTime+0x8c>)
 8002576:	4003      	ands	r3, r0
 8002578:	6848      	ldr	r0, [r1, #4]
 800257a:	4303      	orrs	r3, r0
 800257c:	481a      	ldr	r0, [pc, #104]	; (80025e8 <HAL_TIMEx_ConfigBreakDeadTime+0x90>)
 800257e:	4003      	ands	r3, r0
 8002580:	6808      	ldr	r0, [r1, #0]
 8002582:	4303      	orrs	r3, r0
 8002584:	4819      	ldr	r0, [pc, #100]	; (80025ec <HAL_TIMEx_ConfigBreakDeadTime+0x94>)
 8002586:	4003      	ands	r3, r0
 8002588:	6908      	ldr	r0, [r1, #16]
 800258a:	4303      	orrs	r3, r0
 800258c:	4818      	ldr	r0, [pc, #96]	; (80025f0 <HAL_TIMEx_ConfigBreakDeadTime+0x98>)
 800258e:	4003      	ands	r3, r0
 8002590:	6948      	ldr	r0, [r1, #20]
 8002592:	4303      	orrs	r3, r0
 8002594:	4817      	ldr	r0, [pc, #92]	; (80025f4 <HAL_TIMEx_ConfigBreakDeadTime+0x9c>)
 8002596:	4003      	ands	r3, r0
 8002598:	6b08      	ldr	r0, [r1, #48]	; 0x30
 800259a:	4303      	orrs	r3, r0
 800259c:	4816      	ldr	r0, [pc, #88]	; (80025f8 <HAL_TIMEx_ConfigBreakDeadTime+0xa0>)
 800259e:	4003      	ands	r3, r0
 80025a0:	6988      	ldr	r0, [r1, #24]
 80025a2:	0400      	lsls	r0, r0, #16
 80025a4:	4303      	orrs	r3, r0
 80025a6:	4815      	ldr	r0, [pc, #84]	; (80025fc <HAL_TIMEx_ConfigBreakDeadTime+0xa4>)
 80025a8:	4282      	cmp	r2, r0
 80025aa:	d114      	bne.n	80025d6 <HAL_TIMEx_ConfigBreakDeadTime+0x7e>
 80025ac:	4814      	ldr	r0, [pc, #80]	; (8002600 <HAL_TIMEx_ConfigBreakDeadTime+0xa8>)
 80025ae:	4003      	ands	r3, r0
 80025b0:	69c8      	ldr	r0, [r1, #28]
 80025b2:	4303      	orrs	r3, r0
 80025b4:	4813      	ldr	r0, [pc, #76]	; (8002604 <HAL_TIMEx_ConfigBreakDeadTime+0xac>)
 80025b6:	4018      	ands	r0, r3
 80025b8:	6a8b      	ldr	r3, [r1, #40]	; 0x28
 80025ba:	051b      	lsls	r3, r3, #20
 80025bc:	4303      	orrs	r3, r0
 80025be:	4812      	ldr	r0, [pc, #72]	; (8002608 <HAL_TIMEx_ConfigBreakDeadTime+0xb0>)
 80025c0:	4003      	ands	r3, r0
 80025c2:	6a08      	ldr	r0, [r1, #32]
 80025c4:	4303      	orrs	r3, r0
 80025c6:	4811      	ldr	r0, [pc, #68]	; (800260c <HAL_TIMEx_ConfigBreakDeadTime+0xb4>)
 80025c8:	4003      	ands	r3, r0
 80025ca:	6a48      	ldr	r0, [r1, #36]	; 0x24
 80025cc:	6ac9      	ldr	r1, [r1, #44]	; 0x2c
 80025ce:	4303      	orrs	r3, r0
 80025d0:	480f      	ldr	r0, [pc, #60]	; (8002610 <HAL_TIMEx_ConfigBreakDeadTime+0xb8>)
 80025d2:	4003      	ands	r3, r0
 80025d4:	430b      	orrs	r3, r1
 80025d6:	2000      	movs	r0, #0
 80025d8:	6453      	str	r3, [r2, #68]	; 0x44
 80025da:	7020      	strb	r0, [r4, #0]
 80025dc:	bd10      	pop	{r4, pc}
 80025de:	46c0      	nop			; (mov r8, r8)
 80025e0:	fffffcff 	.word	0xfffffcff
 80025e4:	fffffbff 	.word	0xfffffbff
 80025e8:	fffff7ff 	.word	0xfffff7ff
 80025ec:	ffffefff 	.word	0xffffefff
 80025f0:	ffffdfff 	.word	0xffffdfff
 80025f4:	ffffbfff 	.word	0xffffbfff
 80025f8:	fff0ffff 	.word	0xfff0ffff
 80025fc:	40012c00 	.word	0x40012c00
 8002600:	efffffff 	.word	0xefffffff
 8002604:	ff0fffff 	.word	0xff0fffff
 8002608:	feffffff 	.word	0xfeffffff
 800260c:	fdffffff 	.word	0xfdffffff
 8002610:	dfffffff 	.word	0xdfffffff

08002614 <UART_EndTxTransfer>:
 8002614:	b530      	push	{r4, r5, lr}
 8002616:	f3ef 8410 	mrs	r4, PRIMASK
 800261a:	2201      	movs	r2, #1
 800261c:	f382 8810 	msr	PRIMASK, r2
 8002620:	25c0      	movs	r5, #192	; 0xc0
 8002622:	6801      	ldr	r1, [r0, #0]
 8002624:	680b      	ldr	r3, [r1, #0]
 8002626:	43ab      	bics	r3, r5
 8002628:	600b      	str	r3, [r1, #0]
 800262a:	f384 8810 	msr	PRIMASK, r4
 800262e:	f3ef 8110 	mrs	r1, PRIMASK
 8002632:	f382 8810 	msr	PRIMASK, r2
 8002636:	6802      	ldr	r2, [r0, #0]
 8002638:	4c04      	ldr	r4, [pc, #16]	; (800264c <UART_EndTxTransfer+0x38>)
 800263a:	6893      	ldr	r3, [r2, #8]
 800263c:	4023      	ands	r3, r4
 800263e:	6093      	str	r3, [r2, #8]
 8002640:	f381 8810 	msr	PRIMASK, r1
 8002644:	2320      	movs	r3, #32
 8002646:	3008      	adds	r0, #8
 8002648:	67c3      	str	r3, [r0, #124]	; 0x7c
 800264a:	bd30      	pop	{r4, r5, pc}
 800264c:	ff7fffff 	.word	0xff7fffff

08002650 <UART_EndRxTransfer>:
 8002650:	b530      	push	{r4, r5, lr}
 8002652:	f3ef 8410 	mrs	r4, PRIMASK
 8002656:	2201      	movs	r2, #1
 8002658:	f382 8810 	msr	PRIMASK, r2
 800265c:	6801      	ldr	r1, [r0, #0]
 800265e:	4d13      	ldr	r5, [pc, #76]	; (80026ac <UART_EndRxTransfer+0x5c>)
 8002660:	680b      	ldr	r3, [r1, #0]
 8002662:	402b      	ands	r3, r5
 8002664:	600b      	str	r3, [r1, #0]
 8002666:	f384 8810 	msr	PRIMASK, r4
 800266a:	f3ef 8110 	mrs	r1, PRIMASK
 800266e:	f382 8810 	msr	PRIMASK, r2
 8002672:	6802      	ldr	r2, [r0, #0]
 8002674:	4c0e      	ldr	r4, [pc, #56]	; (80026b0 <UART_EndRxTransfer+0x60>)
 8002676:	6893      	ldr	r3, [r2, #8]
 8002678:	4023      	ands	r3, r4
 800267a:	6093      	str	r3, [r2, #8]
 800267c:	f381 8810 	msr	PRIMASK, r1
 8002680:	6ec3      	ldr	r3, [r0, #108]	; 0x6c
 8002682:	2b01      	cmp	r3, #1
 8002684:	d10a      	bne.n	800269c <UART_EndRxTransfer+0x4c>
 8002686:	f3ef 8110 	mrs	r1, PRIMASK
 800268a:	f383 8810 	msr	PRIMASK, r3
 800268e:	2410      	movs	r4, #16
 8002690:	6802      	ldr	r2, [r0, #0]
 8002692:	6813      	ldr	r3, [r2, #0]
 8002694:	43a3      	bics	r3, r4
 8002696:	6013      	str	r3, [r2, #0]
 8002698:	f381 8810 	msr	PRIMASK, r1
 800269c:	0003      	movs	r3, r0
 800269e:	2220      	movs	r2, #32
 80026a0:	3388      	adds	r3, #136	; 0x88
 80026a2:	601a      	str	r2, [r3, #0]
 80026a4:	2300      	movs	r3, #0
 80026a6:	66c3      	str	r3, [r0, #108]	; 0x6c
 80026a8:	6703      	str	r3, [r0, #112]	; 0x70
 80026aa:	bd30      	pop	{r4, r5, pc}
 80026ac:	fffffedf 	.word	0xfffffedf
 80026b0:	effffffe 	.word	0xeffffffe

080026b4 <HAL_UART_RxCpltCallback>:
 80026b4:	4770      	bx	lr

080026b6 <HAL_UART_RxHalfCpltCallback>:
 80026b6:	4770      	bx	lr

080026b8 <HAL_UART_ErrorCallback>:
 80026b8:	4770      	bx	lr

080026ba <UART_DMAError>:
 80026ba:	b570      	push	{r4, r5, r6, lr}
 80026bc:	6a84      	ldr	r4, [r0, #40]	; 0x28
 80026be:	0023      	movs	r3, r4
 80026c0:	0022      	movs	r2, r4
 80026c2:	3308      	adds	r3, #8
 80026c4:	3288      	adds	r2, #136	; 0x88
 80026c6:	6fdb      	ldr	r3, [r3, #124]	; 0x7c
 80026c8:	6815      	ldr	r5, [r2, #0]
 80026ca:	6822      	ldr	r2, [r4, #0]
 80026cc:	6892      	ldr	r2, [r2, #8]
 80026ce:	0612      	lsls	r2, r2, #24
 80026d0:	d508      	bpl.n	80026e4 <UART_DMAError+0x2a>
 80026d2:	2b21      	cmp	r3, #33	; 0x21
 80026d4:	d106      	bne.n	80026e4 <UART_DMAError+0x2a>
 80026d6:	0023      	movs	r3, r4
 80026d8:	2200      	movs	r2, #0
 80026da:	3356      	adds	r3, #86	; 0x56
 80026dc:	0020      	movs	r0, r4
 80026de:	801a      	strh	r2, [r3, #0]
 80026e0:	f7ff ff98 	bl	8002614 <UART_EndTxTransfer>
 80026e4:	6823      	ldr	r3, [r4, #0]
 80026e6:	689b      	ldr	r3, [r3, #8]
 80026e8:	065b      	lsls	r3, r3, #25
 80026ea:	d508      	bpl.n	80026fe <UART_DMAError+0x44>
 80026ec:	2d22      	cmp	r5, #34	; 0x22
 80026ee:	d106      	bne.n	80026fe <UART_DMAError+0x44>
 80026f0:	0023      	movs	r3, r4
 80026f2:	2200      	movs	r2, #0
 80026f4:	335e      	adds	r3, #94	; 0x5e
 80026f6:	0020      	movs	r0, r4
 80026f8:	801a      	strh	r2, [r3, #0]
 80026fa:	f7ff ffa9 	bl	8002650 <UART_EndRxTransfer>
 80026fe:	0022      	movs	r2, r4
 8002700:	2310      	movs	r3, #16
 8002702:	328c      	adds	r2, #140	; 0x8c
 8002704:	6811      	ldr	r1, [r2, #0]
 8002706:	0020      	movs	r0, r4
 8002708:	430b      	orrs	r3, r1
 800270a:	6013      	str	r3, [r2, #0]
 800270c:	f7ff ffd4 	bl	80026b8 <HAL_UART_ErrorCallback>
 8002710:	bd70      	pop	{r4, r5, r6, pc}

08002712 <HAL_UARTEx_RxEventCallback>:
 8002712:	4770      	bx	lr

08002714 <UART_DMARxHalfCplt>:
 8002714:	6a80      	ldr	r0, [r0, #40]	; 0x28
 8002716:	b510      	push	{r4, lr}
 8002718:	6ec3      	ldr	r3, [r0, #108]	; 0x6c
 800271a:	2b01      	cmp	r3, #1
 800271c:	d106      	bne.n	800272c <UART_DMARxHalfCplt+0x18>
 800271e:	0003      	movs	r3, r0
 8002720:	335c      	adds	r3, #92	; 0x5c
 8002722:	8819      	ldrh	r1, [r3, #0]
 8002724:	0849      	lsrs	r1, r1, #1
 8002726:	f7ff fff4 	bl	8002712 <HAL_UARTEx_RxEventCallback>
 800272a:	bd10      	pop	{r4, pc}
 800272c:	f7ff ffc3 	bl	80026b6 <HAL_UART_RxHalfCpltCallback>
 8002730:	e7fb      	b.n	800272a <UART_DMARxHalfCplt+0x16>
	...

08002734 <UART_DMAReceiveCplt>:
 8002734:	0003      	movs	r3, r0
 8002736:	681b      	ldr	r3, [r3, #0]
 8002738:	2220      	movs	r2, #32
 800273a:	681b      	ldr	r3, [r3, #0]
 800273c:	b570      	push	{r4, r5, r6, lr}
 800273e:	0019      	movs	r1, r3
 8002740:	6a80      	ldr	r0, [r0, #40]	; 0x28
 8002742:	4011      	ands	r1, r2
 8002744:	4213      	tst	r3, r2
 8002746:	d134      	bne.n	80027b2 <UART_DMAReceiveCplt+0x7e>
 8002748:	0003      	movs	r3, r0
 800274a:	335e      	adds	r3, #94	; 0x5e
 800274c:	8019      	strh	r1, [r3, #0]
 800274e:	f3ef 8510 	mrs	r5, PRIMASK
 8002752:	2301      	movs	r3, #1
 8002754:	f383 8810 	msr	PRIMASK, r3
 8002758:	6804      	ldr	r4, [r0, #0]
 800275a:	4e1c      	ldr	r6, [pc, #112]	; (80027cc <UART_DMAReceiveCplt+0x98>)
 800275c:	6821      	ldr	r1, [r4, #0]
 800275e:	4031      	ands	r1, r6
 8002760:	6021      	str	r1, [r4, #0]
 8002762:	f385 8810 	msr	PRIMASK, r5
 8002766:	f3ef 8510 	mrs	r5, PRIMASK
 800276a:	f383 8810 	msr	PRIMASK, r3
 800276e:	6804      	ldr	r4, [r0, #0]
 8002770:	68a1      	ldr	r1, [r4, #8]
 8002772:	4399      	bics	r1, r3
 8002774:	60a1      	str	r1, [r4, #8]
 8002776:	f385 8810 	msr	PRIMASK, r5
 800277a:	f3ef 8410 	mrs	r4, PRIMASK
 800277e:	f383 8810 	msr	PRIMASK, r3
 8002782:	2540      	movs	r5, #64	; 0x40
 8002784:	6801      	ldr	r1, [r0, #0]
 8002786:	688b      	ldr	r3, [r1, #8]
 8002788:	43ab      	bics	r3, r5
 800278a:	608b      	str	r3, [r1, #8]
 800278c:	f384 8810 	msr	PRIMASK, r4
 8002790:	0003      	movs	r3, r0
 8002792:	3388      	adds	r3, #136	; 0x88
 8002794:	601a      	str	r2, [r3, #0]
 8002796:	6ec3      	ldr	r3, [r0, #108]	; 0x6c
 8002798:	2b01      	cmp	r3, #1
 800279a:	d10a      	bne.n	80027b2 <UART_DMAReceiveCplt+0x7e>
 800279c:	f3ef 8110 	mrs	r1, PRIMASK
 80027a0:	f383 8810 	msr	PRIMASK, r3
 80027a4:	2410      	movs	r4, #16
 80027a6:	6802      	ldr	r2, [r0, #0]
 80027a8:	6813      	ldr	r3, [r2, #0]
 80027aa:	43a3      	bics	r3, r4
 80027ac:	6013      	str	r3, [r2, #0]
 80027ae:	f381 8810 	msr	PRIMASK, r1
 80027b2:	6ec3      	ldr	r3, [r0, #108]	; 0x6c
 80027b4:	2b01      	cmp	r3, #1
 80027b6:	d105      	bne.n	80027c4 <UART_DMAReceiveCplt+0x90>
 80027b8:	0003      	movs	r3, r0
 80027ba:	335c      	adds	r3, #92	; 0x5c
 80027bc:	8819      	ldrh	r1, [r3, #0]
 80027be:	f7ff ffa8 	bl	8002712 <HAL_UARTEx_RxEventCallback>
 80027c2:	bd70      	pop	{r4, r5, r6, pc}
 80027c4:	f7ff ff76 	bl	80026b4 <HAL_UART_RxCpltCallback>
 80027c8:	e7fb      	b.n	80027c2 <UART_DMAReceiveCplt+0x8e>
 80027ca:	46c0      	nop			; (mov r8, r8)
 80027cc:	fffffeff 	.word	0xfffffeff

080027d0 <UART_SetConfig>:
 80027d0:	b570      	push	{r4, r5, r6, lr}
 80027d2:	0004      	movs	r4, r0
 80027d4:	6925      	ldr	r5, [r4, #16]
 80027d6:	68a1      	ldr	r1, [r4, #8]
 80027d8:	6802      	ldr	r2, [r0, #0]
 80027da:	4329      	orrs	r1, r5
 80027dc:	6965      	ldr	r5, [r4, #20]
 80027de:	69c3      	ldr	r3, [r0, #28]
 80027e0:	4329      	orrs	r1, r5
 80027e2:	6810      	ldr	r0, [r2, #0]
 80027e4:	4d4e      	ldr	r5, [pc, #312]	; (8002920 <UART_SetConfig+0x150>)
 80027e6:	4319      	orrs	r1, r3
 80027e8:	4028      	ands	r0, r5
 80027ea:	4301      	orrs	r1, r0
 80027ec:	6011      	str	r1, [r2, #0]
 80027ee:	6851      	ldr	r1, [r2, #4]
 80027f0:	484c      	ldr	r0, [pc, #304]	; (8002924 <UART_SetConfig+0x154>)
 80027f2:	6a25      	ldr	r5, [r4, #32]
 80027f4:	4001      	ands	r1, r0
 80027f6:	68e0      	ldr	r0, [r4, #12]
 80027f8:	4301      	orrs	r1, r0
 80027fa:	6051      	str	r1, [r2, #4]
 80027fc:	69a1      	ldr	r1, [r4, #24]
 80027fe:	6890      	ldr	r0, [r2, #8]
 8002800:	4329      	orrs	r1, r5
 8002802:	4d49      	ldr	r5, [pc, #292]	; (8002928 <UART_SetConfig+0x158>)
 8002804:	4028      	ands	r0, r5
 8002806:	4301      	orrs	r1, r0
 8002808:	200f      	movs	r0, #15
 800280a:	6091      	str	r1, [r2, #8]
 800280c:	6ad1      	ldr	r1, [r2, #44]	; 0x2c
 800280e:	4381      	bics	r1, r0
 8002810:	6a60      	ldr	r0, [r4, #36]	; 0x24
 8002812:	4301      	orrs	r1, r0
 8002814:	62d1      	str	r1, [r2, #44]	; 0x2c
 8002816:	4945      	ldr	r1, [pc, #276]	; (800292c <UART_SetConfig+0x15c>)
 8002818:	428a      	cmp	r2, r1
 800281a:	d116      	bne.n	800284a <UART_SetConfig+0x7a>
 800281c:	2003      	movs	r0, #3
 800281e:	4944      	ldr	r1, [pc, #272]	; (8002930 <UART_SetConfig+0x160>)
 8002820:	6d4a      	ldr	r2, [r1, #84]	; 0x54
 8002822:	4002      	ands	r2, r0
 8002824:	3a01      	subs	r2, #1
 8002826:	2a02      	cmp	r2, #2
 8002828:	d812      	bhi.n	8002850 <UART_SetConfig+0x80>
 800282a:	4842      	ldr	r0, [pc, #264]	; (8002934 <UART_SetConfig+0x164>)
 800282c:	5c80      	ldrb	r0, [r0, r2]
 800282e:	2280      	movs	r2, #128	; 0x80
 8002830:	0212      	lsls	r2, r2, #8
 8002832:	4293      	cmp	r3, r2
 8002834:	d01b      	beq.n	800286e <UART_SetConfig+0x9e>
 8002836:	2808      	cmp	r0, #8
 8002838:	d900      	bls.n	800283c <UART_SetConfig+0x6c>
 800283a:	e06f      	b.n	800291c <UART_SetConfig+0x14c>
 800283c:	f7fd fc6e 	bl	800011c <__gnu_thumb1_case_uqi>
 8002840:	6e4d6e48 	.word	0x6e4d6e48
 8002844:	6e6e6e68 	.word	0x6e6e6e68
 8002848:	6b          	.byte	0x6b
 8002849:	00          	.byte	0x00
 800284a:	493b      	ldr	r1, [pc, #236]	; (8002938 <UART_SetConfig+0x168>)
 800284c:	428a      	cmp	r2, r1
 800284e:	d165      	bne.n	800291c <UART_SetConfig+0x14c>
 8002850:	2280      	movs	r2, #128	; 0x80
 8002852:	0212      	lsls	r2, r2, #8
 8002854:	4293      	cmp	r3, r2
 8002856:	d13b      	bne.n	80028d0 <UART_SetConfig+0x100>
 8002858:	f7ff f9be 	bl	8001bd8 <HAL_RCC_GetPCLK1Freq>
 800285c:	1e03      	subs	r3, r0, #0
 800285e:	d117      	bne.n	8002890 <UART_SetConfig+0xc0>
 8002860:	2000      	movs	r0, #0
 8002862:	4b36      	ldr	r3, [pc, #216]	; (800293c <UART_SetConfig+0x16c>)
 8002864:	66a3      	str	r3, [r4, #104]	; 0x68
 8002866:	2300      	movs	r3, #0
 8002868:	6723      	str	r3, [r4, #112]	; 0x70
 800286a:	6763      	str	r3, [r4, #116]	; 0x74
 800286c:	bd70      	pop	{r4, r5, r6, pc}
 800286e:	2808      	cmp	r0, #8
 8002870:	d854      	bhi.n	800291c <UART_SetConfig+0x14c>
 8002872:	f7fd fc49 	bl	8000108 <__gnu_thumb1_case_sqi>
 8002876:	53f1      	.short	0x53f1
 8002878:	532a5305 	.word	0x532a5305
 800287c:	5353      	.short	0x5353
 800287e:	0d          	.byte	0x0d
 800287f:	00          	.byte	0x00
 8002880:	6809      	ldr	r1, [r1, #0]
 8002882:	482f      	ldr	r0, [pc, #188]	; (8002940 <UART_SetConfig+0x170>)
 8002884:	0609      	lsls	r1, r1, #24
 8002886:	0f49      	lsrs	r1, r1, #29
 8002888:	3101      	adds	r1, #1
 800288a:	f7fd fc51 	bl	8000130 <__udivsi3>
 800288e:	0003      	movs	r3, r0
 8002890:	6a62      	ldr	r2, [r4, #36]	; 0x24
 8002892:	492c      	ldr	r1, [pc, #176]	; (8002944 <UART_SetConfig+0x174>)
 8002894:	0052      	lsls	r2, r2, #1
 8002896:	5a51      	ldrh	r1, [r2, r1]
 8002898:	0018      	movs	r0, r3
 800289a:	f7fd fc49 	bl	8000130 <__udivsi3>
 800289e:	6865      	ldr	r5, [r4, #4]
 80028a0:	0040      	lsls	r0, r0, #1
 80028a2:	086b      	lsrs	r3, r5, #1
 80028a4:	18c0      	adds	r0, r0, r3
 80028a6:	0029      	movs	r1, r5
 80028a8:	f7fd fc42 	bl	8000130 <__udivsi3>
 80028ac:	0002      	movs	r2, r0
 80028ae:	4b26      	ldr	r3, [pc, #152]	; (8002948 <UART_SetConfig+0x178>)
 80028b0:	3a10      	subs	r2, #16
 80028b2:	429a      	cmp	r2, r3
 80028b4:	d832      	bhi.n	800291c <UART_SetConfig+0x14c>
 80028b6:	230f      	movs	r3, #15
 80028b8:	0002      	movs	r2, r0
 80028ba:	0700      	lsls	r0, r0, #28
 80028bc:	439a      	bics	r2, r3
 80028be:	b293      	uxth	r3, r2
 80028c0:	0f40      	lsrs	r0, r0, #29
 80028c2:	6822      	ldr	r2, [r4, #0]
 80028c4:	4318      	orrs	r0, r3
 80028c6:	60d0      	str	r0, [r2, #12]
 80028c8:	e7ca      	b.n	8002860 <UART_SetConfig+0x90>
 80028ca:	f7ff f8ad 	bl	8001a28 <HAL_RCC_GetSysClockFreq>
 80028ce:	e7c5      	b.n	800285c <UART_SetConfig+0x8c>
 80028d0:	f7ff f982 	bl	8001bd8 <HAL_RCC_GetPCLK1Freq>
 80028d4:	2800      	cmp	r0, #0
 80028d6:	d0c3      	beq.n	8002860 <UART_SetConfig+0x90>
 80028d8:	e006      	b.n	80028e8 <UART_SetConfig+0x118>
 80028da:	6809      	ldr	r1, [r1, #0]
 80028dc:	4818      	ldr	r0, [pc, #96]	; (8002940 <UART_SetConfig+0x170>)
 80028de:	0609      	lsls	r1, r1, #24
 80028e0:	0f49      	lsrs	r1, r1, #29
 80028e2:	3101      	adds	r1, #1
 80028e4:	f7fd fc24 	bl	8000130 <__udivsi3>
 80028e8:	6a63      	ldr	r3, [r4, #36]	; 0x24
 80028ea:	4a16      	ldr	r2, [pc, #88]	; (8002944 <UART_SetConfig+0x174>)
 80028ec:	005b      	lsls	r3, r3, #1
 80028ee:	5a99      	ldrh	r1, [r3, r2]
 80028f0:	f7fd fc1e 	bl	8000130 <__udivsi3>
 80028f4:	6865      	ldr	r5, [r4, #4]
 80028f6:	086b      	lsrs	r3, r5, #1
 80028f8:	18c0      	adds	r0, r0, r3
 80028fa:	0029      	movs	r1, r5
 80028fc:	f7fd fc18 	bl	8000130 <__udivsi3>
 8002900:	0002      	movs	r2, r0
 8002902:	4b11      	ldr	r3, [pc, #68]	; (8002948 <UART_SetConfig+0x178>)
 8002904:	3a10      	subs	r2, #16
 8002906:	429a      	cmp	r2, r3
 8002908:	d808      	bhi.n	800291c <UART_SetConfig+0x14c>
 800290a:	6823      	ldr	r3, [r4, #0]
 800290c:	60d8      	str	r0, [r3, #12]
 800290e:	e7a7      	b.n	8002860 <UART_SetConfig+0x90>
 8002910:	f7ff f88a 	bl	8001a28 <HAL_RCC_GetSysClockFreq>
 8002914:	e7de      	b.n	80028d4 <UART_SetConfig+0x104>
 8002916:	2080      	movs	r0, #128	; 0x80
 8002918:	0200      	lsls	r0, r0, #8
 800291a:	e7e5      	b.n	80028e8 <UART_SetConfig+0x118>
 800291c:	2001      	movs	r0, #1
 800291e:	e7a0      	b.n	8002862 <UART_SetConfig+0x92>
 8002920:	cfff69f3 	.word	0xcfff69f3
 8002924:	ffffcfff 	.word	0xffffcfff
 8002928:	11fff4ff 	.word	0x11fff4ff
 800292c:	40013800 	.word	0x40013800
 8002930:	40021000 	.word	0x40021000
 8002934:	08002fc4 	.word	0x08002fc4
 8002938:	40004400 	.word	0x40004400
 800293c:	00010001 	.word	0x00010001
 8002940:	02dc6c00 	.word	0x02dc6c00
 8002944:	08002fc8 	.word	0x08002fc8
 8002948:	0000ffef 	.word	0x0000ffef

0800294c <UART_AdvFeatureConfig>:
 800294c:	6a83      	ldr	r3, [r0, #40]	; 0x28
 800294e:	b530      	push	{r4, r5, lr}
 8002950:	07da      	lsls	r2, r3, #31
 8002952:	d506      	bpl.n	8002962 <UART_AdvFeatureConfig+0x16>
 8002954:	6801      	ldr	r1, [r0, #0]
 8002956:	4c28      	ldr	r4, [pc, #160]	; (80029f8 <UART_AdvFeatureConfig+0xac>)
 8002958:	684a      	ldr	r2, [r1, #4]
 800295a:	4022      	ands	r2, r4
 800295c:	6ac4      	ldr	r4, [r0, #44]	; 0x2c
 800295e:	4322      	orrs	r2, r4
 8002960:	604a      	str	r2, [r1, #4]
 8002962:	079a      	lsls	r2, r3, #30
 8002964:	d506      	bpl.n	8002974 <UART_AdvFeatureConfig+0x28>
 8002966:	6801      	ldr	r1, [r0, #0]
 8002968:	4c24      	ldr	r4, [pc, #144]	; (80029fc <UART_AdvFeatureConfig+0xb0>)
 800296a:	684a      	ldr	r2, [r1, #4]
 800296c:	4022      	ands	r2, r4
 800296e:	6b04      	ldr	r4, [r0, #48]	; 0x30
 8002970:	4322      	orrs	r2, r4
 8002972:	604a      	str	r2, [r1, #4]
 8002974:	075a      	lsls	r2, r3, #29
 8002976:	d506      	bpl.n	8002986 <UART_AdvFeatureConfig+0x3a>
 8002978:	6801      	ldr	r1, [r0, #0]
 800297a:	4c21      	ldr	r4, [pc, #132]	; (8002a00 <UART_AdvFeatureConfig+0xb4>)
 800297c:	684a      	ldr	r2, [r1, #4]
 800297e:	4022      	ands	r2, r4
 8002980:	6b44      	ldr	r4, [r0, #52]	; 0x34
 8002982:	4322      	orrs	r2, r4
 8002984:	604a      	str	r2, [r1, #4]
 8002986:	071a      	lsls	r2, r3, #28
 8002988:	d506      	bpl.n	8002998 <UART_AdvFeatureConfig+0x4c>
 800298a:	6801      	ldr	r1, [r0, #0]
 800298c:	4c1d      	ldr	r4, [pc, #116]	; (8002a04 <UART_AdvFeatureConfig+0xb8>)
 800298e:	684a      	ldr	r2, [r1, #4]
 8002990:	4022      	ands	r2, r4
 8002992:	6b84      	ldr	r4, [r0, #56]	; 0x38
 8002994:	4322      	orrs	r2, r4
 8002996:	604a      	str	r2, [r1, #4]
 8002998:	06da      	lsls	r2, r3, #27
 800299a:	d506      	bpl.n	80029aa <UART_AdvFeatureConfig+0x5e>
 800299c:	6801      	ldr	r1, [r0, #0]
 800299e:	4c1a      	ldr	r4, [pc, #104]	; (8002a08 <UART_AdvFeatureConfig+0xbc>)
 80029a0:	688a      	ldr	r2, [r1, #8]
 80029a2:	4022      	ands	r2, r4
 80029a4:	6bc4      	ldr	r4, [r0, #60]	; 0x3c
 80029a6:	4322      	orrs	r2, r4
 80029a8:	608a      	str	r2, [r1, #8]
 80029aa:	069a      	lsls	r2, r3, #26
 80029ac:	d506      	bpl.n	80029bc <UART_AdvFeatureConfig+0x70>
 80029ae:	6801      	ldr	r1, [r0, #0]
 80029b0:	4c16      	ldr	r4, [pc, #88]	; (8002a0c <UART_AdvFeatureConfig+0xc0>)
 80029b2:	688a      	ldr	r2, [r1, #8]
 80029b4:	4022      	ands	r2, r4
 80029b6:	6c04      	ldr	r4, [r0, #64]	; 0x40
 80029b8:	4322      	orrs	r2, r4
 80029ba:	608a      	str	r2, [r1, #8]
 80029bc:	065a      	lsls	r2, r3, #25
 80029be:	d510      	bpl.n	80029e2 <UART_AdvFeatureConfig+0x96>
 80029c0:	6801      	ldr	r1, [r0, #0]
 80029c2:	4d13      	ldr	r5, [pc, #76]	; (8002a10 <UART_AdvFeatureConfig+0xc4>)
 80029c4:	684a      	ldr	r2, [r1, #4]
 80029c6:	6c44      	ldr	r4, [r0, #68]	; 0x44
 80029c8:	402a      	ands	r2, r5
 80029ca:	4322      	orrs	r2, r4
 80029cc:	604a      	str	r2, [r1, #4]
 80029ce:	2280      	movs	r2, #128	; 0x80
 80029d0:	0352      	lsls	r2, r2, #13
 80029d2:	4294      	cmp	r4, r2
 80029d4:	d105      	bne.n	80029e2 <UART_AdvFeatureConfig+0x96>
 80029d6:	684a      	ldr	r2, [r1, #4]
 80029d8:	4c0e      	ldr	r4, [pc, #56]	; (8002a14 <UART_AdvFeatureConfig+0xc8>)
 80029da:	4022      	ands	r2, r4
 80029dc:	6c84      	ldr	r4, [r0, #72]	; 0x48
 80029de:	4322      	orrs	r2, r4
 80029e0:	604a      	str	r2, [r1, #4]
 80029e2:	061b      	lsls	r3, r3, #24
 80029e4:	d506      	bpl.n	80029f4 <UART_AdvFeatureConfig+0xa8>
 80029e6:	6802      	ldr	r2, [r0, #0]
 80029e8:	490b      	ldr	r1, [pc, #44]	; (8002a18 <UART_AdvFeatureConfig+0xcc>)
 80029ea:	6853      	ldr	r3, [r2, #4]
 80029ec:	400b      	ands	r3, r1
 80029ee:	6cc1      	ldr	r1, [r0, #76]	; 0x4c
 80029f0:	430b      	orrs	r3, r1
 80029f2:	6053      	str	r3, [r2, #4]
 80029f4:	bd30      	pop	{r4, r5, pc}
 80029f6:	46c0      	nop			; (mov r8, r8)
 80029f8:	fffdffff 	.word	0xfffdffff
 80029fc:	fffeffff 	.word	0xfffeffff
 8002a00:	fffbffff 	.word	0xfffbffff
 8002a04:	ffff7fff 	.word	0xffff7fff
 8002a08:	ffffefff 	.word	0xffffefff
 8002a0c:	ffffdfff 	.word	0xffffdfff
 8002a10:	ffefffff 	.word	0xffefffff
 8002a14:	ff9fffff 	.word	0xff9fffff
 8002a18:	fff7ffff 	.word	0xfff7ffff

08002a1c <UART_WaitOnFlagUntilTimeout>:
 8002a1c:	b5f7      	push	{r0, r1, r2, r4, r5, r6, r7, lr}
 8002a1e:	2780      	movs	r7, #128	; 0x80
 8002a20:	0004      	movs	r4, r0
 8002a22:	000d      	movs	r5, r1
 8002a24:	0016      	movs	r6, r2
 8002a26:	9301      	str	r3, [sp, #4]
 8002a28:	013f      	lsls	r7, r7, #4
 8002a2a:	6822      	ldr	r2, [r4, #0]
 8002a2c:	69d3      	ldr	r3, [r2, #28]
 8002a2e:	402b      	ands	r3, r5
 8002a30:	1b5b      	subs	r3, r3, r5
 8002a32:	4259      	negs	r1, r3
 8002a34:	414b      	adcs	r3, r1
 8002a36:	42b3      	cmp	r3, r6
 8002a38:	d001      	beq.n	8002a3e <UART_WaitOnFlagUntilTimeout+0x22>
 8002a3a:	2000      	movs	r0, #0
 8002a3c:	e02b      	b.n	8002a96 <UART_WaitOnFlagUntilTimeout+0x7a>
 8002a3e:	9b08      	ldr	r3, [sp, #32]
 8002a40:	3301      	adds	r3, #1
 8002a42:	d0f3      	beq.n	8002a2c <UART_WaitOnFlagUntilTimeout+0x10>
 8002a44:	f7fe f8ae 	bl	8000ba4 <HAL_GetTick>
 8002a48:	9b01      	ldr	r3, [sp, #4]
 8002a4a:	1ac0      	subs	r0, r0, r3
 8002a4c:	9b08      	ldr	r3, [sp, #32]
 8002a4e:	4298      	cmp	r0, r3
 8002a50:	d801      	bhi.n	8002a56 <UART_WaitOnFlagUntilTimeout+0x3a>
 8002a52:	2b00      	cmp	r3, #0
 8002a54:	d120      	bne.n	8002a98 <UART_WaitOnFlagUntilTimeout+0x7c>
 8002a56:	f3ef 8010 	mrs	r0, PRIMASK
 8002a5a:	2201      	movs	r2, #1
 8002a5c:	f382 8810 	msr	PRIMASK, r2
 8002a60:	6821      	ldr	r1, [r4, #0]
 8002a62:	4d21      	ldr	r5, [pc, #132]	; (8002ae8 <UART_WaitOnFlagUntilTimeout+0xcc>)
 8002a64:	680b      	ldr	r3, [r1, #0]
 8002a66:	402b      	ands	r3, r5
 8002a68:	600b      	str	r3, [r1, #0]
 8002a6a:	f380 8810 	msr	PRIMASK, r0
 8002a6e:	f3ef 8010 	mrs	r0, PRIMASK
 8002a72:	f382 8810 	msr	PRIMASK, r2
 8002a76:	6821      	ldr	r1, [r4, #0]
 8002a78:	688b      	ldr	r3, [r1, #8]
 8002a7a:	4393      	bics	r3, r2
 8002a7c:	608b      	str	r3, [r1, #8]
 8002a7e:	f380 8810 	msr	PRIMASK, r0
 8002a82:	0022      	movs	r2, r4
 8002a84:	2320      	movs	r3, #32
 8002a86:	3208      	adds	r2, #8
 8002a88:	67d3      	str	r3, [r2, #124]	; 0x7c
 8002a8a:	3280      	adds	r2, #128	; 0x80
 8002a8c:	6013      	str	r3, [r2, #0]
 8002a8e:	2300      	movs	r3, #0
 8002a90:	2003      	movs	r0, #3
 8002a92:	3480      	adds	r4, #128	; 0x80
 8002a94:	7023      	strb	r3, [r4, #0]
 8002a96:	bdfe      	pop	{r1, r2, r3, r4, r5, r6, r7, pc}
 8002a98:	2104      	movs	r1, #4
 8002a9a:	6823      	ldr	r3, [r4, #0]
 8002a9c:	681a      	ldr	r2, [r3, #0]
 8002a9e:	420a      	tst	r2, r1
 8002aa0:	d0c3      	beq.n	8002a2a <UART_WaitOnFlagUntilTimeout+0xe>
 8002aa2:	69da      	ldr	r2, [r3, #28]
 8002aa4:	423a      	tst	r2, r7
 8002aa6:	d0c0      	beq.n	8002a2a <UART_WaitOnFlagUntilTimeout+0xe>
 8002aa8:	621f      	str	r7, [r3, #32]
 8002aaa:	f3ef 8010 	mrs	r0, PRIMASK
 8002aae:	2201      	movs	r2, #1
 8002ab0:	f382 8810 	msr	PRIMASK, r2
 8002ab4:	6821      	ldr	r1, [r4, #0]
 8002ab6:	4d0c      	ldr	r5, [pc, #48]	; (8002ae8 <UART_WaitOnFlagUntilTimeout+0xcc>)
 8002ab8:	680b      	ldr	r3, [r1, #0]
 8002aba:	402b      	ands	r3, r5
 8002abc:	600b      	str	r3, [r1, #0]
 8002abe:	f380 8810 	msr	PRIMASK, r0
 8002ac2:	f3ef 8010 	mrs	r0, PRIMASK
 8002ac6:	f382 8810 	msr	PRIMASK, r2
 8002aca:	6821      	ldr	r1, [r4, #0]
 8002acc:	688b      	ldr	r3, [r1, #8]
 8002ace:	4393      	bics	r3, r2
 8002ad0:	608b      	str	r3, [r1, #8]
 8002ad2:	f380 8810 	msr	PRIMASK, r0
 8002ad6:	0022      	movs	r2, r4
 8002ad8:	2320      	movs	r3, #32
 8002ada:	3208      	adds	r2, #8
 8002adc:	67d3      	str	r3, [r2, #124]	; 0x7c
 8002ade:	3280      	adds	r2, #128	; 0x80
 8002ae0:	6013      	str	r3, [r2, #0]
 8002ae2:	6053      	str	r3, [r2, #4]
 8002ae4:	e7d3      	b.n	8002a8e <UART_WaitOnFlagUntilTimeout+0x72>
 8002ae6:	46c0      	nop			; (mov r8, r8)
 8002ae8:	fffffe5f 	.word	0xfffffe5f

08002aec <HAL_UART_Transmit>:
 8002aec:	b5f0      	push	{r4, r5, r6, r7, lr}
 8002aee:	0016      	movs	r6, r2
 8002af0:	0002      	movs	r2, r0
 8002af2:	b087      	sub	sp, #28
 8002af4:	3208      	adds	r2, #8
 8002af6:	9305      	str	r3, [sp, #20]
 8002af8:	6fd3      	ldr	r3, [r2, #124]	; 0x7c
 8002afa:	0004      	movs	r4, r0
 8002afc:	000d      	movs	r5, r1
 8002afe:	2002      	movs	r0, #2
 8002b00:	2b20      	cmp	r3, #32
 8002b02:	d153      	bne.n	8002bac <HAL_UART_Transmit+0xc0>
 8002b04:	3801      	subs	r0, #1
 8002b06:	2900      	cmp	r1, #0
 8002b08:	d050      	beq.n	8002bac <HAL_UART_Transmit+0xc0>
 8002b0a:	2e00      	cmp	r6, #0
 8002b0c:	d04e      	beq.n	8002bac <HAL_UART_Transmit+0xc0>
 8002b0e:	2380      	movs	r3, #128	; 0x80
 8002b10:	68a1      	ldr	r1, [r4, #8]
 8002b12:	015b      	lsls	r3, r3, #5
 8002b14:	4299      	cmp	r1, r3
 8002b16:	d104      	bne.n	8002b22 <HAL_UART_Transmit+0x36>
 8002b18:	6923      	ldr	r3, [r4, #16]
 8002b1a:	2b00      	cmp	r3, #0
 8002b1c:	d101      	bne.n	8002b22 <HAL_UART_Transmit+0x36>
 8002b1e:	4205      	tst	r5, r0
 8002b20:	d144      	bne.n	8002bac <HAL_UART_Transmit+0xc0>
 8002b22:	0023      	movs	r3, r4
 8002b24:	3380      	adds	r3, #128	; 0x80
 8002b26:	9303      	str	r3, [sp, #12]
 8002b28:	781b      	ldrb	r3, [r3, #0]
 8002b2a:	2002      	movs	r0, #2
 8002b2c:	2b01      	cmp	r3, #1
 8002b2e:	d03d      	beq.n	8002bac <HAL_UART_Transmit+0xc0>
 8002b30:	2301      	movs	r3, #1
 8002b32:	9903      	ldr	r1, [sp, #12]
 8002b34:	700b      	strb	r3, [r1, #0]
 8002b36:	0023      	movs	r3, r4
 8002b38:	2100      	movs	r1, #0
 8002b3a:	338c      	adds	r3, #140	; 0x8c
 8002b3c:	6019      	str	r1, [r3, #0]
 8002b3e:	2321      	movs	r3, #33	; 0x21
 8002b40:	67d3      	str	r3, [r2, #124]	; 0x7c
 8002b42:	f7fe f82f 	bl	8000ba4 <HAL_GetTick>
 8002b46:	0023      	movs	r3, r4
 8002b48:	3354      	adds	r3, #84	; 0x54
 8002b4a:	801e      	strh	r6, [r3, #0]
 8002b4c:	3302      	adds	r3, #2
 8002b4e:	801e      	strh	r6, [r3, #0]
 8002b50:	9304      	str	r3, [sp, #16]
 8002b52:	2380      	movs	r3, #128	; 0x80
 8002b54:	68a2      	ldr	r2, [r4, #8]
 8002b56:	0007      	movs	r7, r0
 8002b58:	2600      	movs	r6, #0
 8002b5a:	015b      	lsls	r3, r3, #5
 8002b5c:	429a      	cmp	r2, r3
 8002b5e:	d104      	bne.n	8002b6a <HAL_UART_Transmit+0x7e>
 8002b60:	6923      	ldr	r3, [r4, #16]
 8002b62:	42b3      	cmp	r3, r6
 8002b64:	d101      	bne.n	8002b6a <HAL_UART_Transmit+0x7e>
 8002b66:	002e      	movs	r6, r5
 8002b68:	001d      	movs	r5, r3
 8002b6a:	2300      	movs	r3, #0
 8002b6c:	9a03      	ldr	r2, [sp, #12]
 8002b6e:	7013      	strb	r3, [r2, #0]
 8002b70:	0023      	movs	r3, r4
 8002b72:	3356      	adds	r3, #86	; 0x56
 8002b74:	881b      	ldrh	r3, [r3, #0]
 8002b76:	b29a      	uxth	r2, r3
 8002b78:	2b00      	cmp	r3, #0
 8002b7a:	d10c      	bne.n	8002b96 <HAL_UART_Transmit+0xaa>
 8002b7c:	9b05      	ldr	r3, [sp, #20]
 8002b7e:	2140      	movs	r1, #64	; 0x40
 8002b80:	9300      	str	r3, [sp, #0]
 8002b82:	0020      	movs	r0, r4
 8002b84:	003b      	movs	r3, r7
 8002b86:	f7ff ff49 	bl	8002a1c <UART_WaitOnFlagUntilTimeout>
 8002b8a:	2800      	cmp	r0, #0
 8002b8c:	d10d      	bne.n	8002baa <HAL_UART_Transmit+0xbe>
 8002b8e:	2320      	movs	r3, #32
 8002b90:	3408      	adds	r4, #8
 8002b92:	67e3      	str	r3, [r4, #124]	; 0x7c
 8002b94:	e00a      	b.n	8002bac <HAL_UART_Transmit+0xc0>
 8002b96:	9b05      	ldr	r3, [sp, #20]
 8002b98:	2200      	movs	r2, #0
 8002b9a:	9300      	str	r3, [sp, #0]
 8002b9c:	2180      	movs	r1, #128	; 0x80
 8002b9e:	003b      	movs	r3, r7
 8002ba0:	0020      	movs	r0, r4
 8002ba2:	f7ff ff3b 	bl	8002a1c <UART_WaitOnFlagUntilTimeout>
 8002ba6:	2800      	cmp	r0, #0
 8002ba8:	d002      	beq.n	8002bb0 <HAL_UART_Transmit+0xc4>
 8002baa:	2003      	movs	r0, #3
 8002bac:	b007      	add	sp, #28
 8002bae:	bdf0      	pop	{r4, r5, r6, r7, pc}
 8002bb0:	6822      	ldr	r2, [r4, #0]
 8002bb2:	2d00      	cmp	r5, #0
 8002bb4:	d10b      	bne.n	8002bce <HAL_UART_Transmit+0xe2>
 8002bb6:	8833      	ldrh	r3, [r6, #0]
 8002bb8:	3602      	adds	r6, #2
 8002bba:	05db      	lsls	r3, r3, #23
 8002bbc:	0ddb      	lsrs	r3, r3, #23
 8002bbe:	6293      	str	r3, [r2, #40]	; 0x28
 8002bc0:	9b04      	ldr	r3, [sp, #16]
 8002bc2:	9a04      	ldr	r2, [sp, #16]
 8002bc4:	881b      	ldrh	r3, [r3, #0]
 8002bc6:	3b01      	subs	r3, #1
 8002bc8:	b29b      	uxth	r3, r3
 8002bca:	8013      	strh	r3, [r2, #0]
 8002bcc:	e7d0      	b.n	8002b70 <HAL_UART_Transmit+0x84>
 8002bce:	782b      	ldrb	r3, [r5, #0]
 8002bd0:	3501      	adds	r5, #1
 8002bd2:	6293      	str	r3, [r2, #40]	; 0x28
 8002bd4:	e7f4      	b.n	8002bc0 <HAL_UART_Transmit+0xd4>
	...

08002bd8 <UART_CheckIdleState>:
 8002bd8:	0003      	movs	r3, r0
 8002bda:	b573      	push	{r0, r1, r4, r5, r6, lr}
 8002bdc:	2600      	movs	r6, #0
 8002bde:	0004      	movs	r4, r0
 8002be0:	338c      	adds	r3, #140	; 0x8c
 8002be2:	601e      	str	r6, [r3, #0]
 8002be4:	f7fd ffde 	bl	8000ba4 <HAL_GetTick>
 8002be8:	6823      	ldr	r3, [r4, #0]
 8002bea:	0005      	movs	r5, r0
 8002bec:	681b      	ldr	r3, [r3, #0]
 8002bee:	071b      	lsls	r3, r3, #28
 8002bf0:	d419      	bmi.n	8002c26 <UART_CheckIdleState+0x4e>
 8002bf2:	6823      	ldr	r3, [r4, #0]
 8002bf4:	681b      	ldr	r3, [r3, #0]
 8002bf6:	075b      	lsls	r3, r3, #29
 8002bf8:	d50a      	bpl.n	8002c10 <UART_CheckIdleState+0x38>
 8002bfa:	2180      	movs	r1, #128	; 0x80
 8002bfc:	4b10      	ldr	r3, [pc, #64]	; (8002c40 <UART_CheckIdleState+0x68>)
 8002bfe:	2200      	movs	r2, #0
 8002c00:	9300      	str	r3, [sp, #0]
 8002c02:	0020      	movs	r0, r4
 8002c04:	002b      	movs	r3, r5
 8002c06:	03c9      	lsls	r1, r1, #15
 8002c08:	f7ff ff08 	bl	8002a1c <UART_WaitOnFlagUntilTimeout>
 8002c0c:	2800      	cmp	r0, #0
 8002c0e:	d115      	bne.n	8002c3c <UART_CheckIdleState+0x64>
 8002c10:	0022      	movs	r2, r4
 8002c12:	2320      	movs	r3, #32
 8002c14:	2000      	movs	r0, #0
 8002c16:	3208      	adds	r2, #8
 8002c18:	67d3      	str	r3, [r2, #124]	; 0x7c
 8002c1a:	3280      	adds	r2, #128	; 0x80
 8002c1c:	6013      	str	r3, [r2, #0]
 8002c1e:	66e0      	str	r0, [r4, #108]	; 0x6c
 8002c20:	3480      	adds	r4, #128	; 0x80
 8002c22:	7020      	strb	r0, [r4, #0]
 8002c24:	e00b      	b.n	8002c3e <UART_CheckIdleState+0x66>
 8002c26:	2180      	movs	r1, #128	; 0x80
 8002c28:	4b05      	ldr	r3, [pc, #20]	; (8002c40 <UART_CheckIdleState+0x68>)
 8002c2a:	0032      	movs	r2, r6
 8002c2c:	9300      	str	r3, [sp, #0]
 8002c2e:	0389      	lsls	r1, r1, #14
 8002c30:	0003      	movs	r3, r0
 8002c32:	0020      	movs	r0, r4
 8002c34:	f7ff fef2 	bl	8002a1c <UART_WaitOnFlagUntilTimeout>
 8002c38:	2800      	cmp	r0, #0
 8002c3a:	d0da      	beq.n	8002bf2 <UART_CheckIdleState+0x1a>
 8002c3c:	2003      	movs	r0, #3
 8002c3e:	bd76      	pop	{r1, r2, r4, r5, r6, pc}
 8002c40:	01ffffff 	.word	0x01ffffff

08002c44 <HAL_UART_Init>:
 8002c44:	b570      	push	{r4, r5, r6, lr}
 8002c46:	1e04      	subs	r4, r0, #0
 8002c48:	d101      	bne.n	8002c4e <HAL_UART_Init+0xa>
 8002c4a:	2001      	movs	r0, #1
 8002c4c:	bd70      	pop	{r4, r5, r6, pc}
 8002c4e:	0005      	movs	r5, r0
 8002c50:	3508      	adds	r5, #8
 8002c52:	6feb      	ldr	r3, [r5, #124]	; 0x7c
 8002c54:	2b00      	cmp	r3, #0
 8002c56:	d104      	bne.n	8002c62 <HAL_UART_Init+0x1e>
 8002c58:	0002      	movs	r2, r0
 8002c5a:	3280      	adds	r2, #128	; 0x80
 8002c5c:	7013      	strb	r3, [r2, #0]
 8002c5e:	f7fd fe6b 	bl	8000938 <HAL_UART_MspInit>
 8002c62:	2324      	movs	r3, #36	; 0x24
 8002c64:	2101      	movs	r1, #1
 8002c66:	6822      	ldr	r2, [r4, #0]
 8002c68:	67eb      	str	r3, [r5, #124]	; 0x7c
 8002c6a:	6813      	ldr	r3, [r2, #0]
 8002c6c:	0020      	movs	r0, r4
 8002c6e:	438b      	bics	r3, r1
 8002c70:	6013      	str	r3, [r2, #0]
 8002c72:	f7ff fdad 	bl	80027d0 <UART_SetConfig>
 8002c76:	2801      	cmp	r0, #1
 8002c78:	d0e7      	beq.n	8002c4a <HAL_UART_Init+0x6>
 8002c7a:	6aa3      	ldr	r3, [r4, #40]	; 0x28
 8002c7c:	2b00      	cmp	r3, #0
 8002c7e:	d002      	beq.n	8002c86 <HAL_UART_Init+0x42>
 8002c80:	0020      	movs	r0, r4
 8002c82:	f7ff fe63 	bl	800294c <UART_AdvFeatureConfig>
 8002c86:	6823      	ldr	r3, [r4, #0]
 8002c88:	4907      	ldr	r1, [pc, #28]	; (8002ca8 <HAL_UART_Init+0x64>)
 8002c8a:	685a      	ldr	r2, [r3, #4]
 8002c8c:	0020      	movs	r0, r4
 8002c8e:	400a      	ands	r2, r1
 8002c90:	212a      	movs	r1, #42	; 0x2a
 8002c92:	605a      	str	r2, [r3, #4]
 8002c94:	689a      	ldr	r2, [r3, #8]
 8002c96:	438a      	bics	r2, r1
 8002c98:	609a      	str	r2, [r3, #8]
 8002c9a:	2201      	movs	r2, #1
 8002c9c:	6819      	ldr	r1, [r3, #0]
 8002c9e:	430a      	orrs	r2, r1
 8002ca0:	601a      	str	r2, [r3, #0]
 8002ca2:	f7ff ff99 	bl	8002bd8 <UART_CheckIdleState>
 8002ca6:	e7d1      	b.n	8002c4c <HAL_UART_Init+0x8>
 8002ca8:	ffffb7ff 	.word	0xffffb7ff

08002cac <UART_Start_Receive_DMA>:
 8002cac:	b5f7      	push	{r0, r1, r2, r4, r5, r6, r7, lr}
 8002cae:	0013      	movs	r3, r2
 8002cb0:	0002      	movs	r2, r0
 8002cb2:	0007      	movs	r7, r0
 8002cb4:	0006      	movs	r6, r0
 8002cb6:	325c      	adds	r2, #92	; 0x5c
 8002cb8:	6581      	str	r1, [r0, #88]	; 0x58
 8002cba:	0004      	movs	r4, r0
 8002cbc:	8013      	strh	r3, [r2, #0]
 8002cbe:	2500      	movs	r5, #0
 8002cc0:	2222      	movs	r2, #34	; 0x22
 8002cc2:	378c      	adds	r7, #140	; 0x8c
 8002cc4:	3688      	adds	r6, #136	; 0x88
 8002cc6:	603d      	str	r5, [r7, #0]
 8002cc8:	6032      	str	r2, [r6, #0]
 8002cca:	0022      	movs	r2, r4
 8002ccc:	6fc0      	ldr	r0, [r0, #124]	; 0x7c
 8002cce:	3280      	adds	r2, #128	; 0x80
 8002cd0:	9201      	str	r2, [sp, #4]
 8002cd2:	42a8      	cmp	r0, r5
 8002cd4:	d017      	beq.n	8002d06 <UART_Start_Receive_DMA+0x5a>
 8002cd6:	4a21      	ldr	r2, [pc, #132]	; (8002d5c <UART_Start_Receive_DMA+0xb0>)
 8002cd8:	6385      	str	r5, [r0, #56]	; 0x38
 8002cda:	62c2      	str	r2, [r0, #44]	; 0x2c
 8002cdc:	4a20      	ldr	r2, [pc, #128]	; (8002d60 <UART_Start_Receive_DMA+0xb4>)
 8002cde:	6302      	str	r2, [r0, #48]	; 0x30
 8002ce0:	4a20      	ldr	r2, [pc, #128]	; (8002d64 <UART_Start_Receive_DMA+0xb8>)
 8002ce2:	6342      	str	r2, [r0, #52]	; 0x34
 8002ce4:	6822      	ldr	r2, [r4, #0]
 8002ce6:	3224      	adds	r2, #36	; 0x24
 8002ce8:	4694      	mov	ip, r2
 8002cea:	000a      	movs	r2, r1
 8002cec:	4661      	mov	r1, ip
 8002cee:	f7fe fc03 	bl	80014f8 <HAL_DMA_Start_IT>
 8002cf2:	42a8      	cmp	r0, r5
 8002cf4:	d007      	beq.n	8002d06 <UART_Start_Receive_DMA+0x5a>
 8002cf6:	2310      	movs	r3, #16
 8002cf8:	603b      	str	r3, [r7, #0]
 8002cfa:	9b01      	ldr	r3, [sp, #4]
 8002cfc:	2001      	movs	r0, #1
 8002cfe:	701d      	strb	r5, [r3, #0]
 8002d00:	2320      	movs	r3, #32
 8002d02:	6033      	str	r3, [r6, #0]
 8002d04:	bdfe      	pop	{r1, r2, r3, r4, r5, r6, r7, pc}
 8002d06:	2300      	movs	r3, #0
 8002d08:	9a01      	ldr	r2, [sp, #4]
 8002d0a:	7013      	strb	r3, [r2, #0]
 8002d0c:	6923      	ldr	r3, [r4, #16]
 8002d0e:	2b00      	cmp	r3, #0
 8002d10:	d00b      	beq.n	8002d2a <UART_Start_Receive_DMA+0x7e>
 8002d12:	f3ef 8110 	mrs	r1, PRIMASK
 8002d16:	2301      	movs	r3, #1
 8002d18:	f383 8810 	msr	PRIMASK, r3
 8002d1c:	6822      	ldr	r2, [r4, #0]
 8002d1e:	33ff      	adds	r3, #255	; 0xff
 8002d20:	6810      	ldr	r0, [r2, #0]
 8002d22:	4303      	orrs	r3, r0
 8002d24:	6013      	str	r3, [r2, #0]
 8002d26:	f381 8810 	msr	PRIMASK, r1
 8002d2a:	f3ef 8010 	mrs	r0, PRIMASK
 8002d2e:	2301      	movs	r3, #1
 8002d30:	f383 8810 	msr	PRIMASK, r3
 8002d34:	6821      	ldr	r1, [r4, #0]
 8002d36:	688a      	ldr	r2, [r1, #8]
 8002d38:	431a      	orrs	r2, r3
 8002d3a:	608a      	str	r2, [r1, #8]
 8002d3c:	f380 8810 	msr	PRIMASK, r0
 8002d40:	f3ef 8110 	mrs	r1, PRIMASK
 8002d44:	f383 8810 	msr	PRIMASK, r3
 8002d48:	6822      	ldr	r2, [r4, #0]
 8002d4a:	333f      	adds	r3, #63	; 0x3f
 8002d4c:	6890      	ldr	r0, [r2, #8]
 8002d4e:	4303      	orrs	r3, r0
 8002d50:	6093      	str	r3, [r2, #8]
 8002d52:	f381 8810 	msr	PRIMASK, r1
 8002d56:	2000      	movs	r0, #0
 8002d58:	e7d4      	b.n	8002d04 <UART_Start_Receive_DMA+0x58>
 8002d5a:	46c0      	nop			; (mov r8, r8)
 8002d5c:	08002735 	.word	0x08002735
 8002d60:	08002715 	.word	0x08002715
 8002d64:	080026bb 	.word	0x080026bb

08002d68 <HAL_UART_Receive_DMA>:
 8002d68:	0003      	movs	r3, r0
 8002d6a:	3388      	adds	r3, #136	; 0x88
 8002d6c:	b570      	push	{r4, r5, r6, lr}
 8002d6e:	681c      	ldr	r4, [r3, #0]
 8002d70:	2302      	movs	r3, #2
 8002d72:	2c20      	cmp	r4, #32
 8002d74:	d12d      	bne.n	8002dd2 <HAL_UART_Receive_DMA+0x6a>
 8002d76:	3b01      	subs	r3, #1
 8002d78:	2900      	cmp	r1, #0
 8002d7a:	d02a      	beq.n	8002dd2 <HAL_UART_Receive_DMA+0x6a>
 8002d7c:	2a00      	cmp	r2, #0
 8002d7e:	d028      	beq.n	8002dd2 <HAL_UART_Receive_DMA+0x6a>
 8002d80:	2380      	movs	r3, #128	; 0x80
 8002d82:	6884      	ldr	r4, [r0, #8]
 8002d84:	015b      	lsls	r3, r3, #5
 8002d86:	429c      	cmp	r4, r3
 8002d88:	d106      	bne.n	8002d98 <HAL_UART_Receive_DMA+0x30>
 8002d8a:	6903      	ldr	r3, [r0, #16]
 8002d8c:	2b00      	cmp	r3, #0
 8002d8e:	d103      	bne.n	8002d98 <HAL_UART_Receive_DMA+0x30>
 8002d90:	2401      	movs	r4, #1
 8002d92:	0023      	movs	r3, r4
 8002d94:	4221      	tst	r1, r4
 8002d96:	d11c      	bne.n	8002dd2 <HAL_UART_Receive_DMA+0x6a>
 8002d98:	0004      	movs	r4, r0
 8002d9a:	3480      	adds	r4, #128	; 0x80
 8002d9c:	7825      	ldrb	r5, [r4, #0]
 8002d9e:	2302      	movs	r3, #2
 8002da0:	2d01      	cmp	r5, #1
 8002da2:	d016      	beq.n	8002dd2 <HAL_UART_Receive_DMA+0x6a>
 8002da4:	3b01      	subs	r3, #1
 8002da6:	7023      	strb	r3, [r4, #0]
 8002da8:	2400      	movs	r4, #0
 8002daa:	66c4      	str	r4, [r0, #108]	; 0x6c
 8002dac:	6804      	ldr	r4, [r0, #0]
 8002dae:	6864      	ldr	r4, [r4, #4]
 8002db0:	0224      	lsls	r4, r4, #8
 8002db2:	d50b      	bpl.n	8002dcc <HAL_UART_Receive_DMA+0x64>
 8002db4:	f3ef 8510 	mrs	r5, PRIMASK
 8002db8:	f383 8810 	msr	PRIMASK, r3
 8002dbc:	2380      	movs	r3, #128	; 0x80
 8002dbe:	6804      	ldr	r4, [r0, #0]
 8002dc0:	04db      	lsls	r3, r3, #19
 8002dc2:	6826      	ldr	r6, [r4, #0]
 8002dc4:	4333      	orrs	r3, r6
 8002dc6:	6023      	str	r3, [r4, #0]
 8002dc8:	f385 8810 	msr	PRIMASK, r5
 8002dcc:	f7ff ff6e 	bl	8002cac <UART_Start_Receive_DMA>
 8002dd0:	0003      	movs	r3, r0
 8002dd2:	0018      	movs	r0, r3
 8002dd4:	bd70      	pop	{r4, r5, r6, pc}
	...

08002dd8 <UARTEx_SetNbDataToProcess>:
 8002dd8:	b5f8      	push	{r3, r4, r5, r6, r7, lr}
 8002dda:	6e43      	ldr	r3, [r0, #100]	; 0x64
 8002ddc:	0004      	movs	r4, r0
 8002dde:	2b00      	cmp	r3, #0
 8002de0:	d102      	bne.n	8002de8 <UARTEx_SetNbDataToProcess+0x10>
 8002de2:	4b0d      	ldr	r3, [pc, #52]	; (8002e18 <UARTEx_SetNbDataToProcess+0x40>)
 8002de4:	6683      	str	r3, [r0, #104]	; 0x68
 8002de6:	bdf8      	pop	{r3, r4, r5, r6, r7, pc}
 8002de8:	6803      	ldr	r3, [r0, #0]
 8002dea:	4e0c      	ldr	r6, [pc, #48]	; (8002e1c <UARTEx_SetNbDataToProcess+0x44>)
 8002dec:	689f      	ldr	r7, [r3, #8]
 8002dee:	689b      	ldr	r3, [r3, #8]
 8002df0:	4d0b      	ldr	r5, [pc, #44]	; (8002e20 <UARTEx_SetNbDataToProcess+0x48>)
 8002df2:	0f5b      	lsrs	r3, r3, #29
 8002df4:	5cf0      	ldrb	r0, [r6, r3]
 8002df6:	5ce9      	ldrb	r1, [r5, r3]
 8002df8:	00c0      	lsls	r0, r0, #3
 8002dfa:	f7fd fa23 	bl	8000244 <__divsi3>
 8002dfe:	0023      	movs	r3, r4
 8002e00:	336a      	adds	r3, #106	; 0x6a
 8002e02:	8018      	strh	r0, [r3, #0]
 8002e04:	013b      	lsls	r3, r7, #4
 8002e06:	0f5b      	lsrs	r3, r3, #29
 8002e08:	5cf0      	ldrb	r0, [r6, r3]
 8002e0a:	5ce9      	ldrb	r1, [r5, r3]
 8002e0c:	00c0      	lsls	r0, r0, #3
 8002e0e:	f7fd fa19 	bl	8000244 <__divsi3>
 8002e12:	3468      	adds	r4, #104	; 0x68
 8002e14:	8020      	strh	r0, [r4, #0]
 8002e16:	e7e6      	b.n	8002de6 <UARTEx_SetNbDataToProcess+0xe>
 8002e18:	00010001 	.word	0x00010001
 8002e1c:	08002fe8 	.word	0x08002fe8
 8002e20:	08002fe0 	.word	0x08002fe0

08002e24 <HAL_UARTEx_DisableFifoMode>:
 8002e24:	b570      	push	{r4, r5, r6, lr}
 8002e26:	0004      	movs	r4, r0
 8002e28:	3480      	adds	r4, #128	; 0x80
 8002e2a:	7822      	ldrb	r2, [r4, #0]
 8002e2c:	0003      	movs	r3, r0
 8002e2e:	2002      	movs	r0, #2
 8002e30:	2a01      	cmp	r2, #1
 8002e32:	d011      	beq.n	8002e58 <HAL_UARTEx_DisableFifoMode+0x34>
 8002e34:	001d      	movs	r5, r3
 8002e36:	2224      	movs	r2, #36	; 0x24
 8002e38:	2601      	movs	r6, #1
 8002e3a:	3508      	adds	r5, #8
 8002e3c:	67ea      	str	r2, [r5, #124]	; 0x7c
 8002e3e:	681a      	ldr	r2, [r3, #0]
 8002e40:	6811      	ldr	r1, [r2, #0]
 8002e42:	6810      	ldr	r0, [r2, #0]
 8002e44:	43b0      	bics	r0, r6
 8002e46:	6010      	str	r0, [r2, #0]
 8002e48:	4804      	ldr	r0, [pc, #16]	; (8002e5c <HAL_UARTEx_DisableFifoMode+0x38>)
 8002e4a:	4001      	ands	r1, r0
 8002e4c:	2000      	movs	r0, #0
 8002e4e:	6658      	str	r0, [r3, #100]	; 0x64
 8002e50:	2320      	movs	r3, #32
 8002e52:	6011      	str	r1, [r2, #0]
 8002e54:	67eb      	str	r3, [r5, #124]	; 0x7c
 8002e56:	7020      	strb	r0, [r4, #0]
 8002e58:	bd70      	pop	{r4, r5, r6, pc}
 8002e5a:	46c0      	nop			; (mov r8, r8)
 8002e5c:	dfffffff 	.word	0xdfffffff

08002e60 <HAL_UARTEx_SetTxFifoThreshold>:
 8002e60:	b5f8      	push	{r3, r4, r5, r6, r7, lr}
 8002e62:	0004      	movs	r4, r0
 8002e64:	0025      	movs	r5, r4
 8002e66:	3580      	adds	r5, #128	; 0x80
 8002e68:	782a      	ldrb	r2, [r5, #0]
 8002e6a:	0008      	movs	r0, r1
 8002e6c:	2302      	movs	r3, #2
 8002e6e:	2a01      	cmp	r2, #1
 8002e70:	d018      	beq.n	8002ea4 <HAL_UARTEx_SetTxFifoThreshold+0x44>
 8002e72:	2101      	movs	r1, #1
 8002e74:	0026      	movs	r6, r4
 8002e76:	7029      	strb	r1, [r5, #0]
 8002e78:	6822      	ldr	r2, [r4, #0]
 8002e7a:	3608      	adds	r6, #8
 8002e7c:	3322      	adds	r3, #34	; 0x22
 8002e7e:	67f3      	str	r3, [r6, #124]	; 0x7c
 8002e80:	6817      	ldr	r7, [r2, #0]
 8002e82:	6813      	ldr	r3, [r2, #0]
 8002e84:	438b      	bics	r3, r1
 8002e86:	6013      	str	r3, [r2, #0]
 8002e88:	6893      	ldr	r3, [r2, #8]
 8002e8a:	00db      	lsls	r3, r3, #3
 8002e8c:	08d9      	lsrs	r1, r3, #3
 8002e8e:	4301      	orrs	r1, r0
 8002e90:	6091      	str	r1, [r2, #8]
 8002e92:	0020      	movs	r0, r4
 8002e94:	f7ff ffa0 	bl	8002dd8 <UARTEx_SetNbDataToProcess>
 8002e98:	6823      	ldr	r3, [r4, #0]
 8002e9a:	601f      	str	r7, [r3, #0]
 8002e9c:	2320      	movs	r3, #32
 8002e9e:	67f3      	str	r3, [r6, #124]	; 0x7c
 8002ea0:	2300      	movs	r3, #0
 8002ea2:	702b      	strb	r3, [r5, #0]
 8002ea4:	0018      	movs	r0, r3
 8002ea6:	bdf8      	pop	{r3, r4, r5, r6, r7, pc}

08002ea8 <HAL_UARTEx_SetRxFifoThreshold>:
 8002ea8:	b5f8      	push	{r3, r4, r5, r6, r7, lr}
 8002eaa:	0005      	movs	r5, r0
 8002eac:	3580      	adds	r5, #128	; 0x80
 8002eae:	782b      	ldrb	r3, [r5, #0]
 8002eb0:	0004      	movs	r4, r0
 8002eb2:	000a      	movs	r2, r1
 8002eb4:	2002      	movs	r0, #2
 8002eb6:	2b01      	cmp	r3, #1
 8002eb8:	d018      	beq.n	8002eec <HAL_UARTEx_SetRxFifoThreshold+0x44>
 8002eba:	0026      	movs	r6, r4
 8002ebc:	2324      	movs	r3, #36	; 0x24
 8002ebe:	3801      	subs	r0, #1
 8002ec0:	7028      	strb	r0, [r5, #0]
 8002ec2:	3608      	adds	r6, #8
 8002ec4:	67f3      	str	r3, [r6, #124]	; 0x7c
 8002ec6:	6823      	ldr	r3, [r4, #0]
 8002ec8:	681f      	ldr	r7, [r3, #0]
 8002eca:	6819      	ldr	r1, [r3, #0]
 8002ecc:	4381      	bics	r1, r0
 8002ece:	6019      	str	r1, [r3, #0]
 8002ed0:	6899      	ldr	r1, [r3, #8]
 8002ed2:	4807      	ldr	r0, [pc, #28]	; (8002ef0 <HAL_UARTEx_SetRxFifoThreshold+0x48>)
 8002ed4:	4001      	ands	r1, r0
 8002ed6:	4311      	orrs	r1, r2
 8002ed8:	0020      	movs	r0, r4
 8002eda:	6099      	str	r1, [r3, #8]
 8002edc:	f7ff ff7c 	bl	8002dd8 <UARTEx_SetNbDataToProcess>
 8002ee0:	6823      	ldr	r3, [r4, #0]
 8002ee2:	2000      	movs	r0, #0
 8002ee4:	601f      	str	r7, [r3, #0]
 8002ee6:	2320      	movs	r3, #32
 8002ee8:	67f3      	str	r3, [r6, #124]	; 0x7c
 8002eea:	7028      	strb	r0, [r5, #0]
 8002eec:	bdf8      	pop	{r3, r4, r5, r6, r7, pc}
 8002eee:	46c0      	nop			; (mov r8, r8)
 8002ef0:	f1ffffff 	.word	0xf1ffffff

08002ef4 <__libc_init_array>:
 8002ef4:	b570      	push	{r4, r5, r6, lr}
 8002ef6:	2600      	movs	r6, #0
 8002ef8:	4d0c      	ldr	r5, [pc, #48]	; (8002f2c <__libc_init_array+0x38>)
 8002efa:	4c0d      	ldr	r4, [pc, #52]	; (8002f30 <__libc_init_array+0x3c>)
 8002efc:	1b64      	subs	r4, r4, r5
 8002efe:	10a4      	asrs	r4, r4, #2
 8002f00:	42a6      	cmp	r6, r4
 8002f02:	d109      	bne.n	8002f18 <__libc_init_array+0x24>
 8002f04:	2600      	movs	r6, #0
 8002f06:	f000 f821 	bl	8002f4c <_init>
 8002f0a:	4d0a      	ldr	r5, [pc, #40]	; (8002f34 <__libc_init_array+0x40>)
 8002f0c:	4c0a      	ldr	r4, [pc, #40]	; (8002f38 <__libc_init_array+0x44>)
 8002f0e:	1b64      	subs	r4, r4, r5
 8002f10:	10a4      	asrs	r4, r4, #2
 8002f12:	42a6      	cmp	r6, r4
 8002f14:	d105      	bne.n	8002f22 <__libc_init_array+0x2e>
 8002f16:	bd70      	pop	{r4, r5, r6, pc}
 8002f18:	00b3      	lsls	r3, r6, #2
 8002f1a:	58eb      	ldr	r3, [r5, r3]
 8002f1c:	4798      	blx	r3
 8002f1e:	3601      	adds	r6, #1
 8002f20:	e7ee      	b.n	8002f00 <__libc_init_array+0xc>
 8002f22:	00b3      	lsls	r3, r6, #2
 8002f24:	58eb      	ldr	r3, [r5, r3]
 8002f26:	4798      	blx	r3
 8002f28:	3601      	adds	r6, #1
 8002f2a:	e7f2      	b.n	8002f12 <__libc_init_array+0x1e>
 8002f2c:	08002ff0 	.word	0x08002ff0
 8002f30:	08002ff0 	.word	0x08002ff0
 8002f34:	08002ff0 	.word	0x08002ff0
 8002f38:	08002ff4 	.word	0x08002ff4

08002f3c <memset>:
 8002f3c:	0003      	movs	r3, r0
 8002f3e:	1882      	adds	r2, r0, r2
 8002f40:	4293      	cmp	r3, r2
 8002f42:	d100      	bne.n	8002f46 <memset+0xa>
 8002f44:	4770      	bx	lr
 8002f46:	7019      	strb	r1, [r3, #0]
 8002f48:	3301      	adds	r3, #1
 8002f4a:	e7f9      	b.n	8002f40 <memset+0x4>

08002f4c <_init>:
 8002f4c:	b5f8      	push	{r3, r4, r5, r6, r7, lr}
 8002f4e:	46c0      	nop			; (mov r8, r8)
 8002f50:	bcf8      	pop	{r3, r4, r5, r6, r7}
 8002f52:	bc08      	pop	{r3}
 8002f54:	469e      	mov	lr, r3
 8002f56:	4770      	bx	lr

08002f58 <_fini>:
 8002f58:	b5f8      	push	{r3, r4, r5, r6, r7, lr}
 8002f5a:	46c0      	nop			; (mov r8, r8)
 8002f5c:	bcf8      	pop	{r3, r4, r5, r6, r7}
 8002f5e:	bc08      	pop	{r3}
 8002f60:	469e      	mov	lr, r3
 8002f62:	4770      	bx	lr
